
ctarget:     file format elf64-x86-64


Disassembly of section .init:

0000000000400b10 <_init>:
  400b10:	48 83 ec 08          	sub    $0x8,%rsp
  400b14:	48 8b 05 4d 30 20 00 	mov    0x20304d(%rip),%rax        # 603b68 <_DYNAMIC+0x1d0>
  400b1b:	48 85 c0             	test   %rax,%rax
  400b1e:	74 05                	je     400b25 <_init+0x15>
  400b20:	e8 1b 01 00 00       	callq  400c40 <__gmon_start__@plt>
  400b25:	48 83 c4 08          	add    $0x8,%rsp
  400b29:	c3                   	retq   

Disassembly of section .plt:

0000000000400b30 <__errno_location@plt-0x10>:
  400b30:	ff 35 42 30 20 00    	pushq  0x203042(%rip)        # 603b78 <_GLOBAL_OFFSET_TABLE_+0x8>
  400b36:	ff 25 44 30 20 00    	jmpq   *0x203044(%rip)        # 603b80 <_GLOBAL_OFFSET_TABLE_+0x10>
  400b3c:	0f 1f 40 00          	nopl   0x0(%rax)

0000000000400b40 <__errno_location@plt>:
  400b40:	ff 25 42 30 20 00    	jmpq   *0x203042(%rip)        # 603b88 <_GLOBAL_OFFSET_TABLE_+0x18>
  400b46:	68 00 00 00 00       	pushq  $0x0
  400b4b:	e9 e0 ff ff ff       	jmpq   400b30 <_init+0x20>

0000000000400b50 <srandom@plt>:
  400b50:	ff 25 3a 30 20 00    	jmpq   *0x20303a(%rip)        # 603b90 <_GLOBAL_OFFSET_TABLE_+0x20>
  400b56:	68 01 00 00 00       	pushq  $0x1
  400b5b:	e9 d0 ff ff ff       	jmpq   400b30 <_init+0x20>

0000000000400b60 <strncmp@plt>:
  400b60:	ff 25 32 30 20 00    	jmpq   *0x203032(%rip)        # 603b98 <_GLOBAL_OFFSET_TABLE_+0x28>
  400b66:	68 02 00 00 00       	pushq  $0x2
  400b6b:	e9 c0 ff ff ff       	jmpq   400b30 <_init+0x20>

0000000000400b70 <strcpy@plt>:
  400b70:	ff 25 2a 30 20 00    	jmpq   *0x20302a(%rip)        # 603ba0 <_GLOBAL_OFFSET_TABLE_+0x30>
  400b76:	68 03 00 00 00       	pushq  $0x3
  400b7b:	e9 b0 ff ff ff       	jmpq   400b30 <_init+0x20>

0000000000400b80 <puts@plt>:
  400b80:	ff 25 22 30 20 00    	jmpq   *0x203022(%rip)        # 603ba8 <_GLOBAL_OFFSET_TABLE_+0x38>
  400b86:	68 04 00 00 00       	pushq  $0x4
  400b8b:	e9 a0 ff ff ff       	jmpq   400b30 <_init+0x20>

0000000000400b90 <write@plt>:
  400b90:	ff 25 1a 30 20 00    	jmpq   *0x20301a(%rip)        # 603bb0 <_GLOBAL_OFFSET_TABLE_+0x40>
  400b96:	68 05 00 00 00       	pushq  $0x5
  400b9b:	e9 90 ff ff ff       	jmpq   400b30 <_init+0x20>

0000000000400ba0 <mmap@plt>:
  400ba0:	ff 25 12 30 20 00    	jmpq   *0x203012(%rip)        # 603bb8 <_GLOBAL_OFFSET_TABLE_+0x48>
  400ba6:	68 06 00 00 00       	pushq  $0x6
  400bab:	e9 80 ff ff ff       	jmpq   400b30 <_init+0x20>

0000000000400bb0 <printf@plt>:
  400bb0:	ff 25 0a 30 20 00    	jmpq   *0x20300a(%rip)        # 603bc0 <_GLOBAL_OFFSET_TABLE_+0x50>
  400bb6:	68 07 00 00 00       	pushq  $0x7
  400bbb:	e9 70 ff ff ff       	jmpq   400b30 <_init+0x20>

0000000000400bc0 <memset@plt>:
  400bc0:	ff 25 02 30 20 00    	jmpq   *0x203002(%rip)        # 603bc8 <_GLOBAL_OFFSET_TABLE_+0x58>
  400bc6:	68 08 00 00 00       	pushq  $0x8
  400bcb:	e9 60 ff ff ff       	jmpq   400b30 <_init+0x20>

0000000000400bd0 <alarm@plt>:
  400bd0:	ff 25 fa 2f 20 00    	jmpq   *0x202ffa(%rip)        # 603bd0 <_GLOBAL_OFFSET_TABLE_+0x60>
  400bd6:	68 09 00 00 00       	pushq  $0x9
  400bdb:	e9 50 ff ff ff       	jmpq   400b30 <_init+0x20>

0000000000400be0 <close@plt>:
  400be0:	ff 25 f2 2f 20 00    	jmpq   *0x202ff2(%rip)        # 603bd8 <_GLOBAL_OFFSET_TABLE_+0x68>
  400be6:	68 0a 00 00 00       	pushq  $0xa
  400beb:	e9 40 ff ff ff       	jmpq   400b30 <_init+0x20>

0000000000400bf0 <read@plt>:
  400bf0:	ff 25 ea 2f 20 00    	jmpq   *0x202fea(%rip)        # 603be0 <_GLOBAL_OFFSET_TABLE_+0x70>
  400bf6:	68 0b 00 00 00       	pushq  $0xb
  400bfb:	e9 30 ff ff ff       	jmpq   400b30 <_init+0x20>

0000000000400c00 <__libc_start_main@plt>:
  400c00:	ff 25 e2 2f 20 00    	jmpq   *0x202fe2(%rip)        # 603be8 <_GLOBAL_OFFSET_TABLE_+0x78>
  400c06:	68 0c 00 00 00       	pushq  $0xc
  400c0b:	e9 20 ff ff ff       	jmpq   400b30 <_init+0x20>

0000000000400c10 <signal@plt>:
  400c10:	ff 25 da 2f 20 00    	jmpq   *0x202fda(%rip)        # 603bf0 <_GLOBAL_OFFSET_TABLE_+0x80>
  400c16:	68 0d 00 00 00       	pushq  $0xd
  400c1b:	e9 10 ff ff ff       	jmpq   400b30 <_init+0x20>

0000000000400c20 <gethostbyname@plt>:
  400c20:	ff 25 d2 2f 20 00    	jmpq   *0x202fd2(%rip)        # 603bf8 <_GLOBAL_OFFSET_TABLE_+0x88>
  400c26:	68 0e 00 00 00       	pushq  $0xe
  400c2b:	e9 00 ff ff ff       	jmpq   400b30 <_init+0x20>

0000000000400c30 <fprintf@plt>:
  400c30:	ff 25 ca 2f 20 00    	jmpq   *0x202fca(%rip)        # 603c00 <_GLOBAL_OFFSET_TABLE_+0x90>
  400c36:	68 0f 00 00 00       	pushq  $0xf
  400c3b:	e9 f0 fe ff ff       	jmpq   400b30 <_init+0x20>

0000000000400c40 <__gmon_start__@plt>:
  400c40:	ff 25 c2 2f 20 00    	jmpq   *0x202fc2(%rip)        # 603c08 <_GLOBAL_OFFSET_TABLE_+0x98>
  400c46:	68 10 00 00 00       	pushq  $0x10
  400c4b:	e9 e0 fe ff ff       	jmpq   400b30 <_init+0x20>

0000000000400c50 <strtol@plt>:
  400c50:	ff 25 ba 2f 20 00    	jmpq   *0x202fba(%rip)        # 603c10 <_GLOBAL_OFFSET_TABLE_+0xa0>
  400c56:	68 11 00 00 00       	pushq  $0x11
  400c5b:	e9 d0 fe ff ff       	jmpq   400b30 <_init+0x20>

0000000000400c60 <memcpy@plt>:
  400c60:	ff 25 b2 2f 20 00    	jmpq   *0x202fb2(%rip)        # 603c18 <_GLOBAL_OFFSET_TABLE_+0xa8>
  400c66:	68 12 00 00 00       	pushq  $0x12
  400c6b:	e9 c0 fe ff ff       	jmpq   400b30 <_init+0x20>

0000000000400c70 <time@plt>:
  400c70:	ff 25 aa 2f 20 00    	jmpq   *0x202faa(%rip)        # 603c20 <_GLOBAL_OFFSET_TABLE_+0xb0>
  400c76:	68 13 00 00 00       	pushq  $0x13
  400c7b:	e9 b0 fe ff ff       	jmpq   400b30 <_init+0x20>

0000000000400c80 <random@plt>:
  400c80:	ff 25 a2 2f 20 00    	jmpq   *0x202fa2(%rip)        # 603c28 <_GLOBAL_OFFSET_TABLE_+0xb8>
  400c86:	68 14 00 00 00       	pushq  $0x14
  400c8b:	e9 a0 fe ff ff       	jmpq   400b30 <_init+0x20>

0000000000400c90 <_IO_getc@plt>:
  400c90:	ff 25 9a 2f 20 00    	jmpq   *0x202f9a(%rip)        # 603c30 <_GLOBAL_OFFSET_TABLE_+0xc0>
  400c96:	68 15 00 00 00       	pushq  $0x15
  400c9b:	e9 90 fe ff ff       	jmpq   400b30 <_init+0x20>

0000000000400ca0 <__isoc99_sscanf@plt>:
  400ca0:	ff 25 92 2f 20 00    	jmpq   *0x202f92(%rip)        # 603c38 <_GLOBAL_OFFSET_TABLE_+0xc8>
  400ca6:	68 16 00 00 00       	pushq  $0x16
  400cab:	e9 80 fe ff ff       	jmpq   400b30 <_init+0x20>

0000000000400cb0 <munmap@plt>:
  400cb0:	ff 25 8a 2f 20 00    	jmpq   *0x202f8a(%rip)        # 603c40 <_GLOBAL_OFFSET_TABLE_+0xd0>
  400cb6:	68 17 00 00 00       	pushq  $0x17
  400cbb:	e9 70 fe ff ff       	jmpq   400b30 <_init+0x20>

0000000000400cc0 <bcopy@plt>:
  400cc0:	ff 25 82 2f 20 00    	jmpq   *0x202f82(%rip)        # 603c48 <_GLOBAL_OFFSET_TABLE_+0xd8>
  400cc6:	68 18 00 00 00       	pushq  $0x18
  400ccb:	e9 60 fe ff ff       	jmpq   400b30 <_init+0x20>

0000000000400cd0 <fopen@plt>:
  400cd0:	ff 25 7a 2f 20 00    	jmpq   *0x202f7a(%rip)        # 603c50 <_GLOBAL_OFFSET_TABLE_+0xe0>
  400cd6:	68 19 00 00 00       	pushq  $0x19
  400cdb:	e9 50 fe ff ff       	jmpq   400b30 <_init+0x20>

0000000000400ce0 <getopt@plt>:
  400ce0:	ff 25 72 2f 20 00    	jmpq   *0x202f72(%rip)        # 603c58 <_GLOBAL_OFFSET_TABLE_+0xe8>
  400ce6:	68 1a 00 00 00       	pushq  $0x1a
  400ceb:	e9 40 fe ff ff       	jmpq   400b30 <_init+0x20>

0000000000400cf0 <strtoul@plt>:
  400cf0:	ff 25 6a 2f 20 00    	jmpq   *0x202f6a(%rip)        # 603c60 <_GLOBAL_OFFSET_TABLE_+0xf0>
  400cf6:	68 1b 00 00 00       	pushq  $0x1b
  400cfb:	e9 30 fe ff ff       	jmpq   400b30 <_init+0x20>

0000000000400d00 <sprintf@plt>:
  400d00:	ff 25 62 2f 20 00    	jmpq   *0x202f62(%rip)        # 603c68 <_GLOBAL_OFFSET_TABLE_+0xf8>
  400d06:	68 1c 00 00 00       	pushq  $0x1c
  400d0b:	e9 20 fe ff ff       	jmpq   400b30 <_init+0x20>

0000000000400d10 <exit@plt>:
  400d10:	ff 25 5a 2f 20 00    	jmpq   *0x202f5a(%rip)        # 603c70 <_GLOBAL_OFFSET_TABLE_+0x100>
  400d16:	68 1d 00 00 00       	pushq  $0x1d
  400d1b:	e9 10 fe ff ff       	jmpq   400b30 <_init+0x20>

0000000000400d20 <connect@plt>:
  400d20:	ff 25 52 2f 20 00    	jmpq   *0x202f52(%rip)        # 603c78 <_GLOBAL_OFFSET_TABLE_+0x108>
  400d26:	68 1e 00 00 00       	pushq  $0x1e
  400d2b:	e9 00 fe ff ff       	jmpq   400b30 <_init+0x20>

0000000000400d30 <socket@plt>:
  400d30:	ff 25 4a 2f 20 00    	jmpq   *0x202f4a(%rip)        # 603c80 <_GLOBAL_OFFSET_TABLE_+0x110>
  400d36:	68 1f 00 00 00       	pushq  $0x1f
  400d3b:	e9 f0 fd ff ff       	jmpq   400b30 <_init+0x20>

Disassembly of section .text:

0000000000400d40 <_start>:
  400d40:	31 ed                	xor    %ebp,%ebp
  400d42:	49 89 d1             	mov    %rdx,%r9
  400d45:	5e                   	pop    %rsi
  400d46:	48 89 e2             	mov    %rsp,%rdx
  400d49:	48 83 e4 f0          	and    $0xfffffffffffffff0,%rsp
  400d4d:	50                   	push   %rax
  400d4e:	54                   	push   %rsp
  400d4f:	49 c7 c0 b0 2a 40 00 	mov    $0x402ab0,%r8
  400d56:	48 c7 c1 40 2a 40 00 	mov    $0x402a40,%rcx
  400d5d:	48 c7 c7 85 0f 40 00 	mov    $0x400f85,%rdi
  400d64:	e8 97 fe ff ff       	callq  400c00 <__libc_start_main@plt>
  400d69:	f4                   	hlt    
  400d6a:	66 0f 1f 44 00 00    	nopw   0x0(%rax,%rax,1)

0000000000400d70 <deregister_tm_clones>:
  400d70:	b8 77 40 60 00       	mov    $0x604077,%eax
  400d75:	55                   	push   %rbp
  400d76:	48 2d 70 40 60 00    	sub    $0x604070,%rax
  400d7c:	48 83 f8 0e          	cmp    $0xe,%rax
  400d80:	48 89 e5             	mov    %rsp,%rbp
  400d83:	76 1b                	jbe    400da0 <deregister_tm_clones+0x30>
  400d85:	b8 00 00 00 00       	mov    $0x0,%eax
  400d8a:	48 85 c0             	test   %rax,%rax
  400d8d:	74 11                	je     400da0 <deregister_tm_clones+0x30>
  400d8f:	5d                   	pop    %rbp
  400d90:	bf 70 40 60 00       	mov    $0x604070,%edi
  400d95:	ff e0                	jmpq   *%rax
  400d97:	66 0f 1f 84 00 00 00 	nopw   0x0(%rax,%rax,1)
  400d9e:	00 00 
  400da0:	5d                   	pop    %rbp
  400da1:	c3                   	retq   
  400da2:	66 66 66 66 66 2e 0f 	data16 data16 data16 data16 nopw %cs:0x0(%rax,%rax,1)
  400da9:	1f 84 00 00 00 00 00 

0000000000400db0 <register_tm_clones>:
  400db0:	be 70 40 60 00       	mov    $0x604070,%esi
  400db5:	55                   	push   %rbp
  400db6:	48 81 ee 70 40 60 00 	sub    $0x604070,%rsi
  400dbd:	48 c1 fe 03          	sar    $0x3,%rsi
  400dc1:	48 89 e5             	mov    %rsp,%rbp
  400dc4:	48 89 f0             	mov    %rsi,%rax
  400dc7:	48 c1 e8 3f          	shr    $0x3f,%rax
  400dcb:	48 01 c6             	add    %rax,%rsi
  400dce:	48 d1 fe             	sar    %rsi
  400dd1:	74 15                	je     400de8 <register_tm_clones+0x38>
  400dd3:	b8 00 00 00 00       	mov    $0x0,%eax
  400dd8:	48 85 c0             	test   %rax,%rax
  400ddb:	74 0b                	je     400de8 <register_tm_clones+0x38>
  400ddd:	5d                   	pop    %rbp
  400dde:	bf 70 40 60 00       	mov    $0x604070,%edi
  400de3:	ff e0                	jmpq   *%rax
  400de5:	0f 1f 00             	nopl   (%rax)
  400de8:	5d                   	pop    %rbp
  400de9:	c3                   	retq   
  400dea:	66 0f 1f 44 00 00    	nopw   0x0(%rax,%rax,1)

0000000000400df0 <__do_global_dtors_aux>:
  400df0:	80 3d a1 32 20 00 00 	cmpb   $0x0,0x2032a1(%rip)        # 604098 <completed.6661>
  400df7:	75 11                	jne    400e0a <__do_global_dtors_aux+0x1a>
  400df9:	55                   	push   %rbp
  400dfa:	48 89 e5             	mov    %rsp,%rbp
  400dfd:	e8 6e ff ff ff       	callq  400d70 <deregister_tm_clones>
  400e02:	5d                   	pop    %rbp
  400e03:	c6 05 8e 32 20 00 01 	movb   $0x1,0x20328e(%rip)        # 604098 <completed.6661>
  400e0a:	f3 c3                	repz retq 
  400e0c:	0f 1f 40 00          	nopl   0x0(%rax)

0000000000400e10 <frame_dummy>:
  400e10:	bf 90 39 60 00       	mov    $0x603990,%edi
  400e15:	48 83 3f 00          	cmpq   $0x0,(%rdi)
  400e19:	75 05                	jne    400e20 <frame_dummy+0x10>
  400e1b:	eb 93                	jmp    400db0 <register_tm_clones>
  400e1d:	0f 1f 00             	nopl   (%rax)
  400e20:	b8 00 00 00 00       	mov    $0x0,%eax
  400e25:	48 85 c0             	test   %rax,%rax
  400e28:	74 f1                	je     400e1b <frame_dummy+0xb>
  400e2a:	55                   	push   %rbp
  400e2b:	48 89 e5             	mov    %rsp,%rbp
  400e2e:	ff d0                	callq  *%rax
  400e30:	5d                   	pop    %rbp
  400e31:	e9 7a ff ff ff       	jmpq   400db0 <register_tm_clones>

0000000000400e36 <usage>:
  400e36:	48 83 ec 08          	sub    $0x8,%rsp
  400e3a:	48 89 fe             	mov    %rdi,%rsi
  400e3d:	83 3d a4 32 20 00 00 	cmpl   $0x0,0x2032a4(%rip)        # 6040e8 <is_checker>
  400e44:	74 39                	je     400e7f <usage+0x49>
  400e46:	bf c8 2a 40 00       	mov    $0x402ac8,%edi
  400e4b:	b8 00 00 00 00       	mov    $0x0,%eax
  400e50:	e8 5b fd ff ff       	callq  400bb0 <printf@plt>
  400e55:	bf 00 2b 40 00       	mov    $0x402b00,%edi
  400e5a:	e8 21 fd ff ff       	callq  400b80 <puts@plt>
  400e5f:	bf 00 2c 40 00       	mov    $0x402c00,%edi
  400e64:	e8 17 fd ff ff       	callq  400b80 <puts@plt>
  400e69:	bf 28 2b 40 00       	mov    $0x402b28,%edi
  400e6e:	e8 0d fd ff ff       	callq  400b80 <puts@plt>
  400e73:	bf 1a 2c 40 00       	mov    $0x402c1a,%edi
  400e78:	e8 03 fd ff ff       	callq  400b80 <puts@plt>
  400e7d:	eb 2d                	jmp    400eac <usage+0x76>
  400e7f:	bf 36 2c 40 00       	mov    $0x402c36,%edi
  400e84:	b8 00 00 00 00       	mov    $0x0,%eax
  400e89:	e8 22 fd ff ff       	callq  400bb0 <printf@plt>
  400e8e:	bf 50 2b 40 00       	mov    $0x402b50,%edi
  400e93:	e8 e8 fc ff ff       	callq  400b80 <puts@plt>
  400e98:	bf 78 2b 40 00       	mov    $0x402b78,%edi
  400e9d:	e8 de fc ff ff       	callq  400b80 <puts@plt>
  400ea2:	bf 54 2c 40 00       	mov    $0x402c54,%edi
  400ea7:	e8 d4 fc ff ff       	callq  400b80 <puts@plt>
  400eac:	bf 00 00 00 00       	mov    $0x0,%edi
  400eb1:	e8 5a fe ff ff       	callq  400d10 <exit@plt>

0000000000400eb6 <initialize_target>:
  400eb6:	55                   	push   %rbp
  400eb7:	53                   	push   %rbx
  400eb8:	48 81 ec 08 20 00 00 	sub    $0x2008,%rsp
  400ebf:	89 f5                	mov    %esi,%ebp
  400ec1:	89 3d 11 32 20 00    	mov    %edi,0x203211(%rip)        # 6040d8 <check_level>
  400ec7:	8b 3d 3b 2e 20 00    	mov    0x202e3b(%rip),%edi        # 603d08 <target_id>
  400ecd:	e8 4e 1b 00 00       	callq  402a20 <gencookie>
  400ed2:	89 05 0c 32 20 00    	mov    %eax,0x20320c(%rip)        # 6040e4 <cookie>
  400ed8:	89 c7                	mov    %eax,%edi
  400eda:	e8 41 1b 00 00       	callq  402a20 <gencookie>
  400edf:	89 05 fb 31 20 00    	mov    %eax,0x2031fb(%rip)        # 6040e0 <authkey>
  400ee5:	8b 05 1d 2e 20 00    	mov    0x202e1d(%rip),%eax        # 603d08 <target_id>
  400eeb:	8d 78 01             	lea    0x1(%rax),%edi
  400eee:	e8 5d fc ff ff       	callq  400b50 <srandom@plt>
  400ef3:	e8 88 fd ff ff       	callq  400c80 <random@plt>
  400ef8:	89 c7                	mov    %eax,%edi
  400efa:	e8 49 02 00 00       	callq  401148 <scramble>
  400eff:	89 c3                	mov    %eax,%ebx
  400f01:	85 ed                	test   %ebp,%ebp
  400f03:	74 1a                	je     400f1f <initialize_target+0x69>
  400f05:	bf 00 00 00 00       	mov    $0x0,%edi
  400f0a:	e8 61 fd ff ff       	callq  400c70 <time@plt>
  400f0f:	89 c7                	mov    %eax,%edi
  400f11:	e8 3a fc ff ff       	callq  400b50 <srandom@plt>
  400f16:	e8 65 fd ff ff       	callq  400c80 <random@plt>
  400f1b:	89 c2                	mov    %eax,%edx
  400f1d:	eb 05                	jmp    400f24 <initialize_target+0x6e>
  400f1f:	ba 00 00 00 00       	mov    $0x0,%edx
  400f24:	8d 04 13             	lea    (%rbx,%rdx,1),%eax
  400f27:	0f b7 c0             	movzwl %ax,%eax
  400f2a:	8d 04 c5 00 01 00 00 	lea    0x100(,%rax,8),%eax
  400f31:	89 c0                	mov    %eax,%eax
  400f33:	48 89 05 26 31 20 00 	mov    %rax,0x203126(%rip)        # 604060 <buf_offset>
  400f3a:	c6 05 c7 3d 20 00 63 	movb   $0x63,0x203dc7(%rip)        # 604d08 <target_prefix>
  400f41:	83 3d 20 31 20 00 00 	cmpl   $0x0,0x203120(%rip)        # 604068 <notify>
  400f48:	74 31                	je     400f7b <initialize_target+0xc5>
  400f4a:	83 3d 97 31 20 00 00 	cmpl   $0x0,0x203197(%rip)        # 6040e8 <is_checker>
  400f51:	75 28                	jne    400f7b <initialize_target+0xc5>
  400f53:	48 89 e7             	mov    %rsp,%rdi
  400f56:	e8 5e 18 00 00       	callq  4027b9 <init_driver>
  400f5b:	85 c0                	test   %eax,%eax
  400f5d:	79 1c                	jns    400f7b <initialize_target+0xc5>
  400f5f:	48 89 e6             	mov    %rsp,%rsi
  400f62:	bf a8 2b 40 00       	mov    $0x402ba8,%edi
  400f67:	b8 00 00 00 00       	mov    $0x0,%eax
  400f6c:	e8 3f fc ff ff       	callq  400bb0 <printf@plt>
  400f71:	bf 08 00 00 00       	mov    $0x8,%edi
  400f76:	e8 95 fd ff ff       	callq  400d10 <exit@plt>
  400f7b:	48 81 c4 08 20 00 00 	add    $0x2008,%rsp
  400f82:	5b                   	pop    %rbx
  400f83:	5d                   	pop    %rbp
  400f84:	c3                   	retq   

0000000000400f85 <main>:
  400f85:	41 56                	push   %r14
  400f87:	41 55                	push   %r13
  400f89:	41 54                	push   %r12
  400f8b:	55                   	push   %rbp
  400f8c:	53                   	push   %rbx
  400f8d:	41 89 fc             	mov    %edi,%r12d
  400f90:	48 89 f3             	mov    %rsi,%rbx
  400f93:	be c0 1b 40 00       	mov    $0x401bc0,%esi
  400f98:	bf 0b 00 00 00       	mov    $0xb,%edi
  400f9d:	e8 6e fc ff ff       	callq  400c10 <signal@plt>
  400fa2:	be 72 1b 40 00       	mov    $0x401b72,%esi
  400fa7:	bf 07 00 00 00       	mov    $0x7,%edi
  400fac:	e8 5f fc ff ff       	callq  400c10 <signal@plt>
  400fb1:	be 0e 1c 40 00       	mov    $0x401c0e,%esi
  400fb6:	bf 04 00 00 00       	mov    $0x4,%edi
  400fbb:	e8 50 fc ff ff       	callq  400c10 <signal@plt>
  400fc0:	83 3d 21 31 20 00 00 	cmpl   $0x0,0x203121(%rip)        # 6040e8 <is_checker>
  400fc7:	74 20                	je     400fe9 <main+0x64>
  400fc9:	be 5c 1c 40 00       	mov    $0x401c5c,%esi
  400fce:	bf 0e 00 00 00       	mov    $0xe,%edi
  400fd3:	e8 38 fc ff ff       	callq  400c10 <signal@plt>
  400fd8:	bf 05 00 00 00       	mov    $0x5,%edi
  400fdd:	e8 ee fb ff ff       	callq  400bd0 <alarm@plt>
  400fe2:	bd 72 2c 40 00       	mov    $0x402c72,%ebp
  400fe7:	eb 05                	jmp    400fee <main+0x69>
  400fe9:	bd 6d 2c 40 00       	mov    $0x402c6d,%ebp
  400fee:	48 8b 05 8b 30 20 00 	mov    0x20308b(%rip),%rax        # 604080 <stdin@@GLIBC_2.2.5>
  400ff5:	48 89 05 d4 30 20 00 	mov    %rax,0x2030d4(%rip)        # 6040d0 <infile>
  400ffc:	41 bd 00 00 00 00    	mov    $0x0,%r13d
  401002:	41 be 00 00 00 00    	mov    $0x0,%r14d
  401008:	e9 b9 00 00 00       	jmpq   4010c6 <main+0x141>
  40100d:	83 e8 61             	sub    $0x61,%eax
  401010:	3c 10                	cmp    $0x10,%al
  401012:	0f 87 93 00 00 00    	ja     4010ab <main+0x126>
  401018:	0f b6 c0             	movzbl %al,%eax
  40101b:	ff 24 c5 b8 2c 40 00 	jmpq   *0x402cb8(,%rax,8)
  401022:	48 8b 3b             	mov    (%rbx),%rdi
  401025:	e8 0c fe ff ff       	callq  400e36 <usage>
  40102a:	be 3d 2f 40 00       	mov    $0x402f3d,%esi
  40102f:	48 8b 3d 52 30 20 00 	mov    0x203052(%rip),%rdi        # 604088 <optarg@@GLIBC_2.2.5>
  401036:	e8 95 fc ff ff       	callq  400cd0 <fopen@plt>
  40103b:	48 89 05 8e 30 20 00 	mov    %rax,0x20308e(%rip)        # 6040d0 <infile>
  401042:	48 85 c0             	test   %rax,%rax
  401045:	75 7f                	jne    4010c6 <main+0x141>
  401047:	48 8b 15 3a 30 20 00 	mov    0x20303a(%rip),%rdx        # 604088 <optarg@@GLIBC_2.2.5>
  40104e:	be 7a 2c 40 00       	mov    $0x402c7a,%esi
  401053:	48 8b 3d 36 30 20 00 	mov    0x203036(%rip),%rdi        # 604090 <stderr@@GLIBC_2.2.5>
  40105a:	e8 d1 fb ff ff       	callq  400c30 <fprintf@plt>
  40105f:	b8 01 00 00 00       	mov    $0x1,%eax
  401064:	e9 d6 00 00 00       	jmpq   40113f <main+0x1ba>
  401069:	ba 10 00 00 00       	mov    $0x10,%edx
  40106e:	be 00 00 00 00       	mov    $0x0,%esi
  401073:	48 8b 3d 0e 30 20 00 	mov    0x20300e(%rip),%rdi        # 604088 <optarg@@GLIBC_2.2.5>
  40107a:	e8 71 fc ff ff       	callq  400cf0 <strtoul@plt>
  40107f:	41 89 c6             	mov    %eax,%r14d
  401082:	eb 42                	jmp    4010c6 <main+0x141>
  401084:	ba 0a 00 00 00       	mov    $0xa,%edx
  401089:	be 00 00 00 00       	mov    $0x0,%esi
  40108e:	48 8b 3d f3 2f 20 00 	mov    0x202ff3(%rip),%rdi        # 604088 <optarg@@GLIBC_2.2.5>
  401095:	e8 b6 fb ff ff       	callq  400c50 <strtol@plt>
  40109a:	41 89 c5             	mov    %eax,%r13d
  40109d:	eb 27                	jmp    4010c6 <main+0x141>
  40109f:	c7 05 bf 2f 20 00 00 	movl   $0x0,0x202fbf(%rip)        # 604068 <notify>
  4010a6:	00 00 00 
  4010a9:	eb 1b                	jmp    4010c6 <main+0x141>
  4010ab:	40 0f be f6          	movsbl %sil,%esi
  4010af:	bf 97 2c 40 00       	mov    $0x402c97,%edi
  4010b4:	b8 00 00 00 00       	mov    $0x0,%eax
  4010b9:	e8 f2 fa ff ff       	callq  400bb0 <printf@plt>
  4010be:	48 8b 3b             	mov    (%rbx),%rdi
  4010c1:	e8 70 fd ff ff       	callq  400e36 <usage>
  4010c6:	48 89 ea             	mov    %rbp,%rdx
  4010c9:	48 89 de             	mov    %rbx,%rsi
  4010cc:	44 89 e7             	mov    %r12d,%edi
  4010cf:	e8 0c fc ff ff       	callq  400ce0 <getopt@plt>
  4010d4:	89 c6                	mov    %eax,%esi
  4010d6:	3c ff                	cmp    $0xff,%al
  4010d8:	0f 85 2f ff ff ff    	jne    40100d <main+0x88>
  4010de:	be 00 00 00 00       	mov    $0x0,%esi
  4010e3:	44 89 ef             	mov    %r13d,%edi
  4010e6:	e8 cb fd ff ff       	callq  400eb6 <initialize_target>
  4010eb:	83 3d f6 2f 20 00 00 	cmpl   $0x0,0x202ff6(%rip)        # 6040e8 <is_checker>
  4010f2:	74 25                	je     401119 <main+0x194>
  4010f4:	44 3b 35 e5 2f 20 00 	cmp    0x202fe5(%rip),%r14d        # 6040e0 <authkey>
  4010fb:	74 1c                	je     401119 <main+0x194>
  4010fd:	44 89 f6             	mov    %r14d,%esi
  401100:	bf d0 2b 40 00       	mov    $0x402bd0,%edi
  401105:	b8 00 00 00 00       	mov    $0x0,%eax
  40110a:	e8 a1 fa ff ff       	callq  400bb0 <printf@plt>
  40110f:	b8 00 00 00 00       	mov    $0x0,%eax
  401114:	e8 68 07 00 00       	callq  401881 <check_fail>
  401119:	8b 35 c5 2f 20 00    	mov    0x202fc5(%rip),%esi        # 6040e4 <cookie>
  40111f:	bf aa 2c 40 00       	mov    $0x402caa,%edi
  401124:	b8 00 00 00 00       	mov    $0x0,%eax
  401129:	e8 82 fa ff ff       	callq  400bb0 <printf@plt>
  40112e:	48 8b 3d 2b 2f 20 00 	mov    0x202f2b(%rip),%rdi        # 604060 <buf_offset>
  401135:	e8 f4 0b 00 00       	callq  401d2e <stable_launch>
  40113a:	b8 00 00 00 00       	mov    $0x0,%eax
  40113f:	5b                   	pop    %rbx
  401140:	5d                   	pop    %rbp
  401141:	41 5c                	pop    %r12
  401143:	41 5d                	pop    %r13
  401145:	41 5e                	pop    %r14
  401147:	c3                   	retq   

0000000000401148 <scramble>:
  401148:	b8 00 00 00 00       	mov    $0x0,%eax
  40114d:	eb 11                	jmp    401160 <scramble+0x18>
  40114f:	69 d0 69 e2 00 00    	imul   $0xe269,%eax,%edx
  401155:	01 fa                	add    %edi,%edx
  401157:	89 c1                	mov    %eax,%ecx
  401159:	89 54 8c d0          	mov    %edx,-0x30(%rsp,%rcx,4)
  40115d:	83 c0 01             	add    $0x1,%eax
  401160:	83 f8 09             	cmp    $0x9,%eax
  401163:	76 ea                	jbe    40114f <scramble+0x7>
  401165:	8b 44 24 f0          	mov    -0x10(%rsp),%eax
  401169:	69 c0 10 a6 00 00    	imul   $0xa610,%eax,%eax
  40116f:	89 44 24 f0          	mov    %eax,-0x10(%rsp)
  401173:	8b 44 24 f0          	mov    -0x10(%rsp),%eax
  401177:	69 c0 dd 5b 00 00    	imul   $0x5bdd,%eax,%eax
  40117d:	89 44 24 f0          	mov    %eax,-0x10(%rsp)
  401181:	8b 44 24 e0          	mov    -0x20(%rsp),%eax
  401185:	69 c0 4e dd 00 00    	imul   $0xdd4e,%eax,%eax
  40118b:	89 44 24 e0          	mov    %eax,-0x20(%rsp)
  40118f:	8b 44 24 d4          	mov    -0x2c(%rsp),%eax
  401193:	69 c0 8c e4 00 00    	imul   $0xe48c,%eax,%eax
  401199:	89 44 24 d4          	mov    %eax,-0x2c(%rsp)
  40119d:	8b 44 24 e4          	mov    -0x1c(%rsp),%eax
  4011a1:	69 c0 c4 eb 00 00    	imul   $0xebc4,%eax,%eax
  4011a7:	89 44 24 e4          	mov    %eax,-0x1c(%rsp)
  4011ab:	8b 44 24 e4          	mov    -0x1c(%rsp),%eax
  4011af:	69 c0 26 cc 00 00    	imul   $0xcc26,%eax,%eax
  4011b5:	89 44 24 e4          	mov    %eax,-0x1c(%rsp)
  4011b9:	8b 44 24 ec          	mov    -0x14(%rsp),%eax
  4011bd:	69 c0 a3 6c 00 00    	imul   $0x6ca3,%eax,%eax
  4011c3:	89 44 24 ec          	mov    %eax,-0x14(%rsp)
  4011c7:	8b 44 24 d0          	mov    -0x30(%rsp),%eax
  4011cb:	69 c0 ee c8 00 00    	imul   $0xc8ee,%eax,%eax
  4011d1:	89 44 24 d0          	mov    %eax,-0x30(%rsp)
  4011d5:	8b 44 24 d0          	mov    -0x30(%rsp),%eax
  4011d9:	69 c0 a6 9d 00 00    	imul   $0x9da6,%eax,%eax
  4011df:	89 44 24 d0          	mov    %eax,-0x30(%rsp)
  4011e3:	8b 44 24 e4          	mov    -0x1c(%rsp),%eax
  4011e7:	69 c0 ff 43 00 00    	imul   $0x43ff,%eax,%eax
  4011ed:	89 44 24 e4          	mov    %eax,-0x1c(%rsp)
  4011f1:	8b 44 24 f0          	mov    -0x10(%rsp),%eax
  4011f5:	69 c0 2a 6a 00 00    	imul   $0x6a2a,%eax,%eax
  4011fb:	89 44 24 f0          	mov    %eax,-0x10(%rsp)
  4011ff:	8b 44 24 dc          	mov    -0x24(%rsp),%eax
  401203:	69 c0 95 ce 00 00    	imul   $0xce95,%eax,%eax
  401209:	89 44 24 dc          	mov    %eax,-0x24(%rsp)
  40120d:	8b 44 24 f0          	mov    -0x10(%rsp),%eax
  401211:	69 c0 0d fa 00 00    	imul   $0xfa0d,%eax,%eax
  401217:	89 44 24 f0          	mov    %eax,-0x10(%rsp)
  40121b:	8b 44 24 f0          	mov    -0x10(%rsp),%eax
  40121f:	69 c0 4b a9 00 00    	imul   $0xa94b,%eax,%eax
  401225:	89 44 24 f0          	mov    %eax,-0x10(%rsp)
  401229:	8b 44 24 e0          	mov    -0x20(%rsp),%eax
  40122d:	8d 04 40             	lea    (%rax,%rax,2),%eax
  401230:	c1 e0 03             	shl    $0x3,%eax
  401233:	89 44 24 e0          	mov    %eax,-0x20(%rsp)
  401237:	8b 44 24 e8          	mov    -0x18(%rsp),%eax
  40123b:	69 c0 8f 3d 00 00    	imul   $0x3d8f,%eax,%eax
  401241:	89 44 24 e8          	mov    %eax,-0x18(%rsp)
  401245:	8b 44 24 e8          	mov    -0x18(%rsp),%eax
  401249:	69 c0 22 ae 00 00    	imul   $0xae22,%eax,%eax
  40124f:	89 44 24 e8          	mov    %eax,-0x18(%rsp)
  401253:	8b 44 24 f0          	mov    -0x10(%rsp),%eax
  401257:	69 c0 f0 49 00 00    	imul   $0x49f0,%eax,%eax
  40125d:	89 44 24 f0          	mov    %eax,-0x10(%rsp)
  401261:	8b 44 24 d0          	mov    -0x30(%rsp),%eax
  401265:	69 c0 b5 d5 00 00    	imul   $0xd5b5,%eax,%eax
  40126b:	89 44 24 d0          	mov    %eax,-0x30(%rsp)
  40126f:	8b 44 24 ec          	mov    -0x14(%rsp),%eax
  401273:	69 c0 c2 e5 00 00    	imul   $0xe5c2,%eax,%eax
  401279:	89 44 24 ec          	mov    %eax,-0x14(%rsp)
  40127d:	8b 44 24 f0          	mov    -0x10(%rsp),%eax
  401281:	69 c0 87 09 00 00    	imul   $0x987,%eax,%eax
  401287:	89 44 24 f0          	mov    %eax,-0x10(%rsp)
  40128b:	8b 44 24 d4          	mov    -0x2c(%rsp),%eax
  40128f:	69 c0 52 5d 00 00    	imul   $0x5d52,%eax,%eax
  401295:	89 44 24 d4          	mov    %eax,-0x2c(%rsp)
  401299:	8b 44 24 d8          	mov    -0x28(%rsp),%eax
  40129d:	69 c0 16 0a 00 00    	imul   $0xa16,%eax,%eax
  4012a3:	89 44 24 d8          	mov    %eax,-0x28(%rsp)
  4012a7:	8b 44 24 e0          	mov    -0x20(%rsp),%eax
  4012ab:	69 c0 d1 98 00 00    	imul   $0x98d1,%eax,%eax
  4012b1:	89 44 24 e0          	mov    %eax,-0x20(%rsp)
  4012b5:	8b 44 24 f0          	mov    -0x10(%rsp),%eax
  4012b9:	69 c0 79 37 00 00    	imul   $0x3779,%eax,%eax
  4012bf:	89 44 24 f0          	mov    %eax,-0x10(%rsp)
  4012c3:	8b 44 24 ec          	mov    -0x14(%rsp),%eax
  4012c7:	69 c0 0f 30 00 00    	imul   $0x300f,%eax,%eax
  4012cd:	89 44 24 ec          	mov    %eax,-0x14(%rsp)
  4012d1:	8b 44 24 e8          	mov    -0x18(%rsp),%eax
  4012d5:	69 c0 1a 9d 00 00    	imul   $0x9d1a,%eax,%eax
  4012db:	89 44 24 e8          	mov    %eax,-0x18(%rsp)
  4012df:	8b 44 24 f4          	mov    -0xc(%rsp),%eax
  4012e3:	6b c0 3c             	imul   $0x3c,%eax,%eax
  4012e6:	89 44 24 f4          	mov    %eax,-0xc(%rsp)
  4012ea:	8b 44 24 e0          	mov    -0x20(%rsp),%eax
  4012ee:	69 c0 eb 76 00 00    	imul   $0x76eb,%eax,%eax
  4012f4:	89 44 24 e0          	mov    %eax,-0x20(%rsp)
  4012f8:	8b 44 24 ec          	mov    -0x14(%rsp),%eax
  4012fc:	69 c0 4e f2 00 00    	imul   $0xf24e,%eax,%eax
  401302:	89 44 24 ec          	mov    %eax,-0x14(%rsp)
  401306:	8b 44 24 ec          	mov    -0x14(%rsp),%eax
  40130a:	69 c0 f2 27 00 00    	imul   $0x27f2,%eax,%eax
  401310:	89 44 24 ec          	mov    %eax,-0x14(%rsp)
  401314:	8b 44 24 d8          	mov    -0x28(%rsp),%eax
  401318:	69 c0 2c 1d 00 00    	imul   $0x1d2c,%eax,%eax
  40131e:	89 44 24 d8          	mov    %eax,-0x28(%rsp)
  401322:	8b 44 24 d8          	mov    -0x28(%rsp),%eax
  401326:	69 c0 4a c9 00 00    	imul   $0xc94a,%eax,%eax
  40132c:	89 44 24 d8          	mov    %eax,-0x28(%rsp)
  401330:	8b 44 24 ec          	mov    -0x14(%rsp),%eax
  401334:	69 c0 84 61 00 00    	imul   $0x6184,%eax,%eax
  40133a:	89 44 24 ec          	mov    %eax,-0x14(%rsp)
  40133e:	8b 44 24 d8          	mov    -0x28(%rsp),%eax
  401342:	69 c0 99 95 00 00    	imul   $0x9599,%eax,%eax
  401348:	89 44 24 d8          	mov    %eax,-0x28(%rsp)
  40134c:	8b 44 24 d0          	mov    -0x30(%rsp),%eax
  401350:	69 c0 78 60 00 00    	imul   $0x6078,%eax,%eax
  401356:	89 44 24 d0          	mov    %eax,-0x30(%rsp)
  40135a:	8b 44 24 d4          	mov    -0x2c(%rsp),%eax
  40135e:	69 c0 2f f9 00 00    	imul   $0xf92f,%eax,%eax
  401364:	89 44 24 d4          	mov    %eax,-0x2c(%rsp)
  401368:	8b 44 24 d4          	mov    -0x2c(%rsp),%eax
  40136c:	69 c0 4b 15 00 00    	imul   $0x154b,%eax,%eax
  401372:	89 44 24 d4          	mov    %eax,-0x2c(%rsp)
  401376:	8b 44 24 e0          	mov    -0x20(%rsp),%eax
  40137a:	69 c0 0b e4 00 00    	imul   $0xe40b,%eax,%eax
  401380:	89 44 24 e0          	mov    %eax,-0x20(%rsp)
  401384:	8b 44 24 f0          	mov    -0x10(%rsp),%eax
  401388:	69 c0 01 ab 00 00    	imul   $0xab01,%eax,%eax
  40138e:	89 44 24 f0          	mov    %eax,-0x10(%rsp)
  401392:	8b 44 24 e8          	mov    -0x18(%rsp),%eax
  401396:	69 c0 ec 8a 00 00    	imul   $0x8aec,%eax,%eax
  40139c:	89 44 24 e8          	mov    %eax,-0x18(%rsp)
  4013a0:	8b 44 24 d8          	mov    -0x28(%rsp),%eax
  4013a4:	69 c0 27 bd 00 00    	imul   $0xbd27,%eax,%eax
  4013aa:	89 44 24 d8          	mov    %eax,-0x28(%rsp)
  4013ae:	8b 44 24 f0          	mov    -0x10(%rsp),%eax
  4013b2:	69 c0 b5 d9 00 00    	imul   $0xd9b5,%eax,%eax
  4013b8:	89 44 24 f0          	mov    %eax,-0x10(%rsp)
  4013bc:	8b 44 24 d0          	mov    -0x30(%rsp),%eax
  4013c0:	69 c0 2e bf 00 00    	imul   $0xbf2e,%eax,%eax
  4013c6:	89 44 24 d0          	mov    %eax,-0x30(%rsp)
  4013ca:	8b 44 24 e0          	mov    -0x20(%rsp),%eax
  4013ce:	69 c0 ec 66 00 00    	imul   $0x66ec,%eax,%eax
  4013d4:	89 44 24 e0          	mov    %eax,-0x20(%rsp)
  4013d8:	8b 44 24 d8          	mov    -0x28(%rsp),%eax
  4013dc:	69 c0 a3 c7 00 00    	imul   $0xc7a3,%eax,%eax
  4013e2:	89 44 24 d8          	mov    %eax,-0x28(%rsp)
  4013e6:	8b 44 24 e4          	mov    -0x1c(%rsp),%eax
  4013ea:	69 c0 59 e1 00 00    	imul   $0xe159,%eax,%eax
  4013f0:	89 44 24 e4          	mov    %eax,-0x1c(%rsp)
  4013f4:	8b 44 24 ec          	mov    -0x14(%rsp),%eax
  4013f8:	69 c0 f2 64 00 00    	imul   $0x64f2,%eax,%eax
  4013fe:	89 44 24 ec          	mov    %eax,-0x14(%rsp)
  401402:	8b 44 24 e8          	mov    -0x18(%rsp),%eax
  401406:	69 c0 ec 4b 00 00    	imul   $0x4bec,%eax,%eax
  40140c:	89 44 24 e8          	mov    %eax,-0x18(%rsp)
  401410:	8b 44 24 dc          	mov    -0x24(%rsp),%eax
  401414:	69 c0 a2 49 00 00    	imul   $0x49a2,%eax,%eax
  40141a:	89 44 24 dc          	mov    %eax,-0x24(%rsp)
  40141e:	8b 44 24 e4          	mov    -0x1c(%rsp),%eax
  401422:	69 c0 bd 0d 00 00    	imul   $0xdbd,%eax,%eax
  401428:	89 44 24 e4          	mov    %eax,-0x1c(%rsp)
  40142c:	8b 44 24 e0          	mov    -0x20(%rsp),%eax
  401430:	69 c0 a5 80 00 00    	imul   $0x80a5,%eax,%eax
  401436:	89 44 24 e0          	mov    %eax,-0x20(%rsp)
  40143a:	8b 44 24 e4          	mov    -0x1c(%rsp),%eax
  40143e:	69 c0 e6 67 00 00    	imul   $0x67e6,%eax,%eax
  401444:	89 44 24 e4          	mov    %eax,-0x1c(%rsp)
  401448:	8b 44 24 dc          	mov    -0x24(%rsp),%eax
  40144c:	69 c0 31 0a 00 00    	imul   $0xa31,%eax,%eax
  401452:	89 44 24 dc          	mov    %eax,-0x24(%rsp)
  401456:	8b 44 24 d8          	mov    -0x28(%rsp),%eax
  40145a:	69 c0 0d 44 00 00    	imul   $0x440d,%eax,%eax
  401460:	89 44 24 d8          	mov    %eax,-0x28(%rsp)
  401464:	8b 44 24 e0          	mov    -0x20(%rsp),%eax
  401468:	69 c0 76 67 00 00    	imul   $0x6776,%eax,%eax
  40146e:	89 44 24 e0          	mov    %eax,-0x20(%rsp)
  401472:	8b 44 24 ec          	mov    -0x14(%rsp),%eax
  401476:	69 c0 42 90 00 00    	imul   $0x9042,%eax,%eax
  40147c:	89 44 24 ec          	mov    %eax,-0x14(%rsp)
  401480:	8b 44 24 dc          	mov    -0x24(%rsp),%eax
  401484:	69 c0 00 f7 00 00    	imul   $0xf700,%eax,%eax
  40148a:	89 44 24 dc          	mov    %eax,-0x24(%rsp)
  40148e:	8b 44 24 d8          	mov    -0x28(%rsp),%eax
  401492:	69 c0 01 e2 00 00    	imul   $0xe201,%eax,%eax
  401498:	89 44 24 d8          	mov    %eax,-0x28(%rsp)
  40149c:	8b 44 24 d4          	mov    -0x2c(%rsp),%eax
  4014a0:	69 c0 97 ba 00 00    	imul   $0xba97,%eax,%eax
  4014a6:	89 44 24 d4          	mov    %eax,-0x2c(%rsp)
  4014aa:	8b 44 24 d4          	mov    -0x2c(%rsp),%eax
  4014ae:	69 c0 aa 67 00 00    	imul   $0x67aa,%eax,%eax
  4014b4:	89 44 24 d4          	mov    %eax,-0x2c(%rsp)
  4014b8:	8b 44 24 d0          	mov    -0x30(%rsp),%eax
  4014bc:	69 c0 cb d7 00 00    	imul   $0xd7cb,%eax,%eax
  4014c2:	89 44 24 d0          	mov    %eax,-0x30(%rsp)
  4014c6:	8b 44 24 f4          	mov    -0xc(%rsp),%eax
  4014ca:	69 c0 0a 67 00 00    	imul   $0x670a,%eax,%eax
  4014d0:	89 44 24 f4          	mov    %eax,-0xc(%rsp)
  4014d4:	8b 44 24 e8          	mov    -0x18(%rsp),%eax
  4014d8:	69 c0 a7 f3 00 00    	imul   $0xf3a7,%eax,%eax
  4014de:	89 44 24 e8          	mov    %eax,-0x18(%rsp)
  4014e2:	8b 44 24 e8          	mov    -0x18(%rsp),%eax
  4014e6:	69 c0 34 03 00 00    	imul   $0x334,%eax,%eax
  4014ec:	89 44 24 e8          	mov    %eax,-0x18(%rsp)
  4014f0:	8b 44 24 f4          	mov    -0xc(%rsp),%eax
  4014f4:	69 c0 7b 94 00 00    	imul   $0x947b,%eax,%eax
  4014fa:	89 44 24 f4          	mov    %eax,-0xc(%rsp)
  4014fe:	8b 44 24 dc          	mov    -0x24(%rsp),%eax
  401502:	69 c0 65 e7 00 00    	imul   $0xe765,%eax,%eax
  401508:	89 44 24 dc          	mov    %eax,-0x24(%rsp)
  40150c:	8b 44 24 f4          	mov    -0xc(%rsp),%eax
  401510:	69 c0 dd 17 00 00    	imul   $0x17dd,%eax,%eax
  401516:	89 44 24 f4          	mov    %eax,-0xc(%rsp)
  40151a:	8b 44 24 d8          	mov    -0x28(%rsp),%eax
  40151e:	69 c0 12 ab 00 00    	imul   $0xab12,%eax,%eax
  401524:	89 44 24 d8          	mov    %eax,-0x28(%rsp)
  401528:	8b 44 24 f4          	mov    -0xc(%rsp),%eax
  40152c:	69 c0 3c 9b 00 00    	imul   $0x9b3c,%eax,%eax
  401532:	89 44 24 f4          	mov    %eax,-0xc(%rsp)
  401536:	8b 44 24 e8          	mov    -0x18(%rsp),%eax
  40153a:	69 c0 40 d7 00 00    	imul   $0xd740,%eax,%eax
  401540:	89 44 24 e8          	mov    %eax,-0x18(%rsp)
  401544:	8b 44 24 e0          	mov    -0x20(%rsp),%eax
  401548:	69 c0 19 be 00 00    	imul   $0xbe19,%eax,%eax
  40154e:	89 44 24 e0          	mov    %eax,-0x20(%rsp)
  401552:	8b 44 24 d8          	mov    -0x28(%rsp),%eax
  401556:	69 c0 50 27 00 00    	imul   $0x2750,%eax,%eax
  40155c:	89 44 24 d8          	mov    %eax,-0x28(%rsp)
  401560:	8b 44 24 dc          	mov    -0x24(%rsp),%eax
  401564:	69 c0 7a d1 00 00    	imul   $0xd17a,%eax,%eax
  40156a:	89 44 24 dc          	mov    %eax,-0x24(%rsp)
  40156e:	8b 44 24 dc          	mov    -0x24(%rsp),%eax
  401572:	69 c0 48 6b 00 00    	imul   $0x6b48,%eax,%eax
  401578:	89 44 24 dc          	mov    %eax,-0x24(%rsp)
  40157c:	8b 44 24 dc          	mov    -0x24(%rsp),%eax
  401580:	69 c0 3f 52 00 00    	imul   $0x523f,%eax,%eax
  401586:	89 44 24 dc          	mov    %eax,-0x24(%rsp)
  40158a:	8b 44 24 d0          	mov    -0x30(%rsp),%eax
  40158e:	69 c0 4c 0e 00 00    	imul   $0xe4c,%eax,%eax
  401594:	89 44 24 d0          	mov    %eax,-0x30(%rsp)
  401598:	8b 44 24 e4          	mov    -0x1c(%rsp),%eax
  40159c:	69 c0 f7 1b 00 00    	imul   $0x1bf7,%eax,%eax
  4015a2:	89 44 24 e4          	mov    %eax,-0x1c(%rsp)
  4015a6:	8b 44 24 d8          	mov    -0x28(%rsp),%eax
  4015aa:	69 c0 c8 66 00 00    	imul   $0x66c8,%eax,%eax
  4015b0:	89 44 24 d8          	mov    %eax,-0x28(%rsp)
  4015b4:	8b 44 24 d8          	mov    -0x28(%rsp),%eax
  4015b8:	69 c0 4d 28 00 00    	imul   $0x284d,%eax,%eax
  4015be:	89 44 24 d8          	mov    %eax,-0x28(%rsp)
  4015c2:	8b 44 24 dc          	mov    -0x24(%rsp),%eax
  4015c6:	69 c0 e8 4c 00 00    	imul   $0x4ce8,%eax,%eax
  4015cc:	89 44 24 dc          	mov    %eax,-0x24(%rsp)
  4015d0:	8b 44 24 d4          	mov    -0x2c(%rsp),%eax
  4015d4:	69 c0 ed 7a 00 00    	imul   $0x7aed,%eax,%eax
  4015da:	89 44 24 d4          	mov    %eax,-0x2c(%rsp)
  4015de:	8b 44 24 f0          	mov    -0x10(%rsp),%eax
  4015e2:	69 c0 ea d1 00 00    	imul   $0xd1ea,%eax,%eax
  4015e8:	89 44 24 f0          	mov    %eax,-0x10(%rsp)
  4015ec:	8b 44 24 e8          	mov    -0x18(%rsp),%eax
  4015f0:	69 c0 98 83 00 00    	imul   $0x8398,%eax,%eax
  4015f6:	89 44 24 e8          	mov    %eax,-0x18(%rsp)
  4015fa:	8b 44 24 e4          	mov    -0x1c(%rsp),%eax
  4015fe:	69 c0 d8 b4 00 00    	imul   $0xb4d8,%eax,%eax
  401604:	89 44 24 e4          	mov    %eax,-0x1c(%rsp)
  401608:	8b 44 24 e8          	mov    -0x18(%rsp),%eax
  40160c:	69 c0 1b 6c 00 00    	imul   $0x6c1b,%eax,%eax
  401612:	89 44 24 e8          	mov    %eax,-0x18(%rsp)
  401616:	8b 44 24 d4          	mov    -0x2c(%rsp),%eax
  40161a:	69 c0 87 21 00 00    	imul   $0x2187,%eax,%eax
  401620:	89 44 24 d4          	mov    %eax,-0x2c(%rsp)
  401624:	8b 44 24 ec          	mov    -0x14(%rsp),%eax
  401628:	69 c0 9a f3 00 00    	imul   $0xf39a,%eax,%eax
  40162e:	89 44 24 ec          	mov    %eax,-0x14(%rsp)
  401632:	8b 44 24 d0          	mov    -0x30(%rsp),%eax
  401636:	69 c0 4f df 00 00    	imul   $0xdf4f,%eax,%eax
  40163c:	89 44 24 d0          	mov    %eax,-0x30(%rsp)
  401640:	8b 44 24 f4          	mov    -0xc(%rsp),%eax
  401644:	69 c0 29 52 00 00    	imul   $0x5229,%eax,%eax
  40164a:	89 44 24 f4          	mov    %eax,-0xc(%rsp)
  40164e:	8b 44 24 f0          	mov    -0x10(%rsp),%eax
  401652:	69 c0 26 51 00 00    	imul   $0x5126,%eax,%eax
  401658:	89 44 24 f0          	mov    %eax,-0x10(%rsp)
  40165c:	ba 00 00 00 00       	mov    $0x0,%edx
  401661:	b8 00 00 00 00       	mov    $0x0,%eax
  401666:	eb 0b                	jmp    401673 <scramble+0x52b>
  401668:	89 d1                	mov    %edx,%ecx
  40166a:	8b 4c 8c d0          	mov    -0x30(%rsp,%rcx,4),%ecx
  40166e:	01 c8                	add    %ecx,%eax
  401670:	83 c2 01             	add    $0x1,%edx
  401673:	83 fa 09             	cmp    $0x9,%edx
  401676:	76 f0                	jbe    401668 <scramble+0x520>
  401678:	f3 c3                	repz retq 

000000000040167a <getbuf>:
  40167a:	48 83 ec 18          	sub    $0x18,%rsp
  40167e:	48 89 e7             	mov    %rsp,%rdi
  401681:	e8 2a 02 00 00       	callq  4018b0 <Gets>
  401686:	b8 01 00 00 00       	mov    $0x1,%eax
  40168b:	48 83 c4 18          	add    $0x18,%rsp
  40168f:	c3                   	retq   

0000000000401690 <touch1>:
  401690:	48 83 ec 08          	sub    $0x8,%rsp
  401694:	c7 05 3e 2a 20 00 01 	movl   $0x1,0x202a3e(%rip)        # 6040dc <vlevel>
  40169b:	00 00 00 
  40169e:	bf 90 2d 40 00       	mov    $0x402d90,%edi
  4016a3:	e8 d8 f4 ff ff       	callq  400b80 <puts@plt>
  4016a8:	bf 01 00 00 00       	mov    $0x1,%edi
  4016ad:	e8 e6 03 00 00       	callq  401a98 <validate>
  4016b2:	bf 00 00 00 00       	mov    $0x0,%edi
  4016b7:	e8 54 f6 ff ff       	callq  400d10 <exit@plt>

00000000004016bc <touch2>:
  4016bc:	48 83 ec 08          	sub    $0x8,%rsp
  4016c0:	89 fe                	mov    %edi,%esi
  4016c2:	c7 05 10 2a 20 00 02 	movl   $0x2,0x202a10(%rip)        # 6040dc <vlevel>
  4016c9:	00 00 00 
  4016cc:	3b 3d 12 2a 20 00    	cmp    0x202a12(%rip),%edi        # 6040e4 <cookie>
  4016d2:	75 1b                	jne    4016ef <touch2+0x33>
  4016d4:	bf b8 2d 40 00       	mov    $0x402db8,%edi
  4016d9:	b8 00 00 00 00       	mov    $0x0,%eax
  4016de:	e8 cd f4 ff ff       	callq  400bb0 <printf@plt>
  4016e3:	bf 02 00 00 00       	mov    $0x2,%edi
  4016e8:	e8 ab 03 00 00       	callq  401a98 <validate>
  4016ed:	eb 19                	jmp    401708 <touch2+0x4c>
  4016ef:	bf e0 2d 40 00       	mov    $0x402de0,%edi
  4016f4:	b8 00 00 00 00       	mov    $0x0,%eax
  4016f9:	e8 b2 f4 ff ff       	callq  400bb0 <printf@plt>
  4016fe:	bf 02 00 00 00       	mov    $0x2,%edi
  401703:	e8 42 04 00 00       	callq  401b4a <fail>
  401708:	bf 00 00 00 00       	mov    $0x0,%edi
  40170d:	e8 fe f5 ff ff       	callq  400d10 <exit@plt>

0000000000401712 <hexmatch>:
  401712:	41 54                	push   %r12
  401714:	55                   	push   %rbp
  401715:	53                   	push   %rbx
  401716:	48 83 ec 70          	sub    $0x70,%rsp
  40171a:	89 fd                	mov    %edi,%ebp
  40171c:	48 89 f3             	mov    %rsi,%rbx
  40171f:	e8 5c f5 ff ff       	callq  400c80 <random@plt>
  401724:	48 89 c6             	mov    %rax,%rsi
  401727:	48 b9 0b d7 a3 70 3d 	movabs $0xa3d70a3d70a3d70b,%rcx
  40172e:	0a d7 a3 
  401731:	48 f7 e9             	imul   %rcx
  401734:	48 8d 0c 32          	lea    (%rdx,%rsi,1),%rcx
  401738:	48 c1 f9 06          	sar    $0x6,%rcx
  40173c:	48 89 f0             	mov    %rsi,%rax
  40173f:	48 c1 f8 3f          	sar    $0x3f,%rax
  401743:	48 29 c1             	sub    %rax,%rcx
  401746:	48 8d 04 89          	lea    (%rcx,%rcx,4),%rax
  40174a:	48 8d 04 80          	lea    (%rax,%rax,4),%rax
  40174e:	48 c1 e0 02          	shl    $0x2,%rax
  401752:	48 29 c6             	sub    %rax,%rsi
  401755:	4c 8d 24 34          	lea    (%rsp,%rsi,1),%r12
  401759:	89 ea                	mov    %ebp,%edx
  40175b:	be ad 2d 40 00       	mov    $0x402dad,%esi
  401760:	4c 89 e7             	mov    %r12,%rdi
  401763:	b8 00 00 00 00       	mov    $0x0,%eax
  401768:	e8 93 f5 ff ff       	callq  400d00 <sprintf@plt>
  40176d:	ba 09 00 00 00       	mov    $0x9,%edx
  401772:	4c 89 e6             	mov    %r12,%rsi
  401775:	48 89 df             	mov    %rbx,%rdi
  401778:	e8 e3 f3 ff ff       	callq  400b60 <strncmp@plt>
  40177d:	85 c0                	test   %eax,%eax
  40177f:	0f 94 c0             	sete   %al
  401782:	0f b6 c0             	movzbl %al,%eax
  401785:	48 83 c4 70          	add    $0x70,%rsp
  401789:	5b                   	pop    %rbx
  40178a:	5d                   	pop    %rbp
  40178b:	41 5c                	pop    %r12
  40178d:	c3                   	retq   

000000000040178e <touch3>:
  40178e:	53                   	push   %rbx
  40178f:	48 89 fb             	mov    %rdi,%rbx
  401792:	c7 05 40 29 20 00 03 	movl   $0x3,0x202940(%rip)        # 6040dc <vlevel>
  401799:	00 00 00 
  40179c:	48 89 fe             	mov    %rdi,%rsi
  40179f:	8b 3d 3f 29 20 00    	mov    0x20293f(%rip),%edi        # 6040e4 <cookie>
  4017a5:	e8 68 ff ff ff       	callq  401712 <hexmatch>
  4017aa:	85 c0                	test   %eax,%eax
  4017ac:	74 1e                	je     4017cc <touch3+0x3e>
  4017ae:	48 89 de             	mov    %rbx,%rsi
  4017b1:	bf 08 2e 40 00       	mov    $0x402e08,%edi
  4017b6:	b8 00 00 00 00       	mov    $0x0,%eax
  4017bb:	e8 f0 f3 ff ff       	callq  400bb0 <printf@plt>
  4017c0:	bf 03 00 00 00       	mov    $0x3,%edi
  4017c5:	e8 ce 02 00 00       	callq  401a98 <validate>
  4017ca:	eb 1c                	jmp    4017e8 <touch3+0x5a>
  4017cc:	48 89 de             	mov    %rbx,%rsi
  4017cf:	bf 30 2e 40 00       	mov    $0x402e30,%edi
  4017d4:	b8 00 00 00 00       	mov    $0x0,%eax
  4017d9:	e8 d2 f3 ff ff       	callq  400bb0 <printf@plt>
  4017de:	bf 03 00 00 00       	mov    $0x3,%edi
  4017e3:	e8 62 03 00 00       	callq  401b4a <fail>
  4017e8:	bf 00 00 00 00       	mov    $0x0,%edi
  4017ed:	e8 1e f5 ff ff       	callq  400d10 <exit@plt>

00000000004017f2 <test>:
  4017f2:	48 83 ec 08          	sub    $0x8,%rsp
  4017f6:	b8 00 00 00 00       	mov    $0x0,%eax
  4017fb:	e8 7a fe ff ff       	callq  40167a <getbuf>
  401800:	89 c6                	mov    %eax,%esi
  401802:	bf 58 2e 40 00       	mov    $0x402e58,%edi
  401807:	b8 00 00 00 00       	mov    $0x0,%eax
  40180c:	e8 9f f3 ff ff       	callq  400bb0 <printf@plt>
  401811:	48 83 c4 08          	add    $0x8,%rsp
  401815:	c3                   	retq   

0000000000401816 <save_char>:
  401816:	8b 05 e8 34 20 00    	mov    0x2034e8(%rip),%eax        # 604d04 <gets_cnt>
  40181c:	3d ff 03 00 00       	cmp    $0x3ff,%eax
  401821:	7f 49                	jg     40186c <save_char+0x56>
  401823:	8d 14 40             	lea    (%rax,%rax,2),%edx
  401826:	89 f9                	mov    %edi,%ecx
  401828:	c0 e9 04             	shr    $0x4,%cl
  40182b:	83 e1 0f             	and    $0xf,%ecx
  40182e:	0f b6 b1 80 31 40 00 	movzbl 0x403180(%rcx),%esi
  401835:	48 63 ca             	movslq %edx,%rcx
  401838:	40 88 b1 00 41 60 00 	mov    %sil,0x604100(%rcx)
  40183f:	8d 4a 01             	lea    0x1(%rdx),%ecx
  401842:	83 e7 0f             	and    $0xf,%edi
  401845:	0f b6 b7 80 31 40 00 	movzbl 0x403180(%rdi),%esi
  40184c:	48 63 c9             	movslq %ecx,%rcx
  40184f:	40 88 b1 00 41 60 00 	mov    %sil,0x604100(%rcx)
  401856:	83 c2 02             	add    $0x2,%edx
  401859:	48 63 d2             	movslq %edx,%rdx
  40185c:	c6 82 00 41 60 00 20 	movb   $0x20,0x604100(%rdx)
  401863:	83 c0 01             	add    $0x1,%eax
  401866:	89 05 98 34 20 00    	mov    %eax,0x203498(%rip)        # 604d04 <gets_cnt>
  40186c:	f3 c3                	repz retq 

000000000040186e <save_term>:
  40186e:	8b 05 90 34 20 00    	mov    0x203490(%rip),%eax        # 604d04 <gets_cnt>
  401874:	8d 04 40             	lea    (%rax,%rax,2),%eax
  401877:	48 98                	cltq   
  401879:	c6 80 00 41 60 00 00 	movb   $0x0,0x604100(%rax)
  401880:	c3                   	retq   

0000000000401881 <check_fail>:
  401881:	48 83 ec 08          	sub    $0x8,%rsp
  401885:	0f be 35 7c 34 20 00 	movsbl 0x20347c(%rip),%esi        # 604d08 <target_prefix>
  40188c:	b9 00 41 60 00       	mov    $0x604100,%ecx
  401891:	8b 15 41 28 20 00    	mov    0x202841(%rip),%edx        # 6040d8 <check_level>
  401897:	bf 7b 2e 40 00       	mov    $0x402e7b,%edi
  40189c:	b8 00 00 00 00       	mov    $0x0,%eax
  4018a1:	e8 0a f3 ff ff       	callq  400bb0 <printf@plt>
  4018a6:	bf 01 00 00 00       	mov    $0x1,%edi
  4018ab:	e8 60 f4 ff ff       	callq  400d10 <exit@plt>

00000000004018b0 <Gets>:
  4018b0:	41 54                	push   %r12
  4018b2:	55                   	push   %rbp
  4018b3:	53                   	push   %rbx
  4018b4:	49 89 fc             	mov    %rdi,%r12
  4018b7:	c7 05 43 34 20 00 00 	movl   $0x0,0x203443(%rip)        # 604d04 <gets_cnt>
  4018be:	00 00 00 
  4018c1:	48 89 fb             	mov    %rdi,%rbx
  4018c4:	eb 11                	jmp    4018d7 <Gets+0x27>
  4018c6:	48 8d 6b 01          	lea    0x1(%rbx),%rbp
  4018ca:	88 03                	mov    %al,(%rbx)
  4018cc:	0f b6 f8             	movzbl %al,%edi
  4018cf:	e8 42 ff ff ff       	callq  401816 <save_char>
  4018d4:	48 89 eb             	mov    %rbp,%rbx
  4018d7:	48 8b 3d f2 27 20 00 	mov    0x2027f2(%rip),%rdi        # 6040d0 <infile>
  4018de:	e8 ad f3 ff ff       	callq  400c90 <_IO_getc@plt>
  4018e3:	83 f8 ff             	cmp    $0xffffffff,%eax
  4018e6:	74 05                	je     4018ed <Gets+0x3d>
  4018e8:	83 f8 0a             	cmp    $0xa,%eax
  4018eb:	75 d9                	jne    4018c6 <Gets+0x16>
  4018ed:	c6 03 00             	movb   $0x0,(%rbx)
  4018f0:	b8 00 00 00 00       	mov    $0x0,%eax
  4018f5:	e8 74 ff ff ff       	callq  40186e <save_term>
  4018fa:	4c 89 e0             	mov    %r12,%rax
  4018fd:	5b                   	pop    %rbx
  4018fe:	5d                   	pop    %rbp
  4018ff:	41 5c                	pop    %r12
  401901:	c3                   	retq   

0000000000401902 <notify_server>:
  401902:	83 3d df 27 20 00 00 	cmpl   $0x0,0x2027df(%rip)        # 6040e8 <is_checker>
  401909:	0f 85 87 01 00 00    	jne    401a96 <notify_server+0x194>
  40190f:	53                   	push   %rbx
  401910:	48 81 ec 00 40 00 00 	sub    $0x4000,%rsp
  401917:	89 fb                	mov    %edi,%ebx
  401919:	8b 05 e5 33 20 00    	mov    0x2033e5(%rip),%eax        # 604d04 <gets_cnt>
  40191f:	83 c0 64             	add    $0x64,%eax
  401922:	3d 00 20 00 00       	cmp    $0x2000,%eax
  401927:	7e 19                	jle    401942 <notify_server+0x40>
  401929:	bf b0 2f 40 00       	mov    $0x402fb0,%edi
  40192e:	b8 00 00 00 00       	mov    $0x0,%eax
  401933:	e8 78 f2 ff ff       	callq  400bb0 <printf@plt>
  401938:	bf 01 00 00 00       	mov    $0x1,%edi
  40193d:	e8 ce f3 ff ff       	callq  400d10 <exit@plt>
  401942:	44 0f be 0d be 33 20 	movsbl 0x2033be(%rip),%r9d        # 604d08 <target_prefix>
  401949:	00 
  40194a:	83 3d 17 27 20 00 00 	cmpl   $0x0,0x202717(%rip)        # 604068 <notify>
  401951:	74 09                	je     40195c <notify_server+0x5a>
  401953:	44 8b 05 86 27 20 00 	mov    0x202786(%rip),%r8d        # 6040e0 <authkey>
  40195a:	eb 06                	jmp    401962 <notify_server+0x60>
  40195c:	41 b8 ff ff ff ff    	mov    $0xffffffff,%r8d
  401962:	85 db                	test   %ebx,%ebx
  401964:	74 07                	je     40196d <notify_server+0x6b>
  401966:	b9 91 2e 40 00       	mov    $0x402e91,%ecx
  40196b:	eb 05                	jmp    401972 <notify_server+0x70>
  40196d:	b9 96 2e 40 00       	mov    $0x402e96,%ecx
  401972:	68 00 41 60 00       	pushq  $0x604100
  401977:	56                   	push   %rsi
  401978:	8b 15 8a 23 20 00    	mov    0x20238a(%rip),%edx        # 603d08 <target_id>
  40197e:	be 9b 2e 40 00       	mov    $0x402e9b,%esi
  401983:	48 8d bc 24 10 20 00 	lea    0x2010(%rsp),%rdi
  40198a:	00 
  40198b:	b8 00 00 00 00       	mov    $0x0,%eax
  401990:	e8 6b f3 ff ff       	callq  400d00 <sprintf@plt>
  401995:	48 83 c4 10          	add    $0x10,%rsp
  401999:	83 3d c8 26 20 00 00 	cmpl   $0x0,0x2026c8(%rip)        # 604068 <notify>
  4019a0:	74 74                	je     401a16 <notify_server+0x114>
  4019a2:	85 db                	test   %ebx,%ebx
  4019a4:	74 64                	je     401a0a <notify_server+0x108>
  4019a6:	49 89 e1             	mov    %rsp,%r9
  4019a9:	41 b8 00 00 00 00    	mov    $0x0,%r8d
  4019af:	48 8d 8c 24 00 20 00 	lea    0x2000(%rsp),%rcx
  4019b6:	00 
  4019b7:	48 8b 15 52 23 20 00 	mov    0x202352(%rip),%rdx        # 603d10 <lab>
  4019be:	48 8b 35 53 23 20 00 	mov    0x202353(%rip),%rsi        # 603d18 <course>
  4019c5:	48 8b 3d 34 23 20 00 	mov    0x202334(%rip),%rdi        # 603d00 <user_id>
  4019cc:	e8 b1 0f 00 00       	callq  402982 <driver_post>
  4019d1:	85 c0                	test   %eax,%eax
  4019d3:	79 1c                	jns    4019f1 <notify_server+0xef>
  4019d5:	48 89 e6             	mov    %rsp,%rsi
  4019d8:	bf b7 2e 40 00       	mov    $0x402eb7,%edi
  4019dd:	b8 00 00 00 00       	mov    $0x0,%eax
  4019e2:	e8 c9 f1 ff ff       	callq  400bb0 <printf@plt>
  4019e7:	bf 01 00 00 00       	mov    $0x1,%edi
  4019ec:	e8 1f f3 ff ff       	callq  400d10 <exit@plt>
  4019f1:	bf e0 2f 40 00       	mov    $0x402fe0,%edi
  4019f6:	e8 85 f1 ff ff       	callq  400b80 <puts@plt>
  4019fb:	bf c3 2e 40 00       	mov    $0x402ec3,%edi
  401a00:	e8 7b f1 ff ff       	callq  400b80 <puts@plt>
  401a05:	e9 84 00 00 00       	jmpq   401a8e <notify_server+0x18c>
  401a0a:	bf cd 2e 40 00       	mov    $0x402ecd,%edi
  401a0f:	e8 6c f1 ff ff       	callq  400b80 <puts@plt>
  401a14:	eb 78                	jmp    401a8e <notify_server+0x18c>
  401a16:	85 db                	test   %ebx,%ebx
  401a18:	74 07                	je     401a21 <notify_server+0x11f>
  401a1a:	be 91 2e 40 00       	mov    $0x402e91,%esi
  401a1f:	eb 05                	jmp    401a26 <notify_server+0x124>
  401a21:	be 96 2e 40 00       	mov    $0x402e96,%esi
  401a26:	bf 18 30 40 00       	mov    $0x403018,%edi
  401a2b:	b8 00 00 00 00       	mov    $0x0,%eax
  401a30:	e8 7b f1 ff ff       	callq  400bb0 <printf@plt>
  401a35:	48 8b 35 c4 22 20 00 	mov    0x2022c4(%rip),%rsi        # 603d00 <user_id>
  401a3c:	bf d4 2e 40 00       	mov    $0x402ed4,%edi
  401a41:	b8 00 00 00 00       	mov    $0x0,%eax
  401a46:	e8 65 f1 ff ff       	callq  400bb0 <printf@plt>
  401a4b:	48 8b 35 c6 22 20 00 	mov    0x2022c6(%rip),%rsi        # 603d18 <course>
  401a52:	bf e1 2e 40 00       	mov    $0x402ee1,%edi
  401a57:	b8 00 00 00 00       	mov    $0x0,%eax
  401a5c:	e8 4f f1 ff ff       	callq  400bb0 <printf@plt>
  401a61:	48 8b 35 a8 22 20 00 	mov    0x2022a8(%rip),%rsi        # 603d10 <lab>
  401a68:	bf ed 2e 40 00       	mov    $0x402eed,%edi
  401a6d:	b8 00 00 00 00       	mov    $0x0,%eax
  401a72:	e8 39 f1 ff ff       	callq  400bb0 <printf@plt>
  401a77:	48 8d b4 24 00 20 00 	lea    0x2000(%rsp),%rsi
  401a7e:	00 
  401a7f:	bf f6 2e 40 00       	mov    $0x402ef6,%edi
  401a84:	b8 00 00 00 00       	mov    $0x0,%eax
  401a89:	e8 22 f1 ff ff       	callq  400bb0 <printf@plt>
  401a8e:	48 81 c4 00 40 00 00 	add    $0x4000,%rsp
  401a95:	5b                   	pop    %rbx
  401a96:	f3 c3                	repz retq 

0000000000401a98 <validate>:
  401a98:	53                   	push   %rbx
  401a99:	89 fb                	mov    %edi,%ebx
  401a9b:	83 3d 46 26 20 00 00 	cmpl   $0x0,0x202646(%rip)        # 6040e8 <is_checker>
  401aa2:	74 60                	je     401b04 <validate+0x6c>
  401aa4:	39 3d 32 26 20 00    	cmp    %edi,0x202632(%rip)        # 6040dc <vlevel>
  401aaa:	74 14                	je     401ac0 <validate+0x28>
  401aac:	bf 02 2f 40 00       	mov    $0x402f02,%edi
  401ab1:	e8 ca f0 ff ff       	callq  400b80 <puts@plt>
  401ab6:	b8 00 00 00 00       	mov    $0x0,%eax
  401abb:	e8 c1 fd ff ff       	callq  401881 <check_fail>
  401ac0:	8b 35 12 26 20 00    	mov    0x202612(%rip),%esi        # 6040d8 <check_level>
  401ac6:	39 fe                	cmp    %edi,%esi
  401ac8:	74 1b                	je     401ae5 <validate+0x4d>
  401aca:	89 fa                	mov    %edi,%edx
  401acc:	bf 40 30 40 00       	mov    $0x403040,%edi
  401ad1:	b8 00 00 00 00       	mov    $0x0,%eax
  401ad6:	e8 d5 f0 ff ff       	callq  400bb0 <printf@plt>
  401adb:	b8 00 00 00 00       	mov    $0x0,%eax
  401ae0:	e8 9c fd ff ff       	callq  401881 <check_fail>
  401ae5:	0f be 35 1c 32 20 00 	movsbl 0x20321c(%rip),%esi        # 604d08 <target_prefix>
  401aec:	b9 00 41 60 00       	mov    $0x604100,%ecx
  401af1:	89 fa                	mov    %edi,%edx
  401af3:	bf 20 2f 40 00       	mov    $0x402f20,%edi
  401af8:	b8 00 00 00 00       	mov    $0x0,%eax
  401afd:	e8 ae f0 ff ff       	callq  400bb0 <printf@plt>
  401b02:	eb 44                	jmp    401b48 <validate+0xb0>
  401b04:	39 3d d2 25 20 00    	cmp    %edi,0x2025d2(%rip)        # 6040dc <vlevel>
  401b0a:	74 18                	je     401b24 <validate+0x8c>
  401b0c:	bf 02 2f 40 00       	mov    $0x402f02,%edi
  401b11:	e8 6a f0 ff ff       	callq  400b80 <puts@plt>
  401b16:	89 de                	mov    %ebx,%esi
  401b18:	bf 00 00 00 00       	mov    $0x0,%edi
  401b1d:	e8 e0 fd ff ff       	callq  401902 <notify_server>
  401b22:	eb 24                	jmp    401b48 <validate+0xb0>
  401b24:	0f be 15 dd 31 20 00 	movsbl 0x2031dd(%rip),%edx        # 604d08 <target_prefix>
  401b2b:	89 fe                	mov    %edi,%esi
  401b2d:	bf 68 30 40 00       	mov    $0x403068,%edi
  401b32:	b8 00 00 00 00       	mov    $0x0,%eax
  401b37:	e8 74 f0 ff ff       	callq  400bb0 <printf@plt>
  401b3c:	89 de                	mov    %ebx,%esi
  401b3e:	bf 01 00 00 00       	mov    $0x1,%edi
  401b43:	e8 ba fd ff ff       	callq  401902 <notify_server>
  401b48:	5b                   	pop    %rbx
  401b49:	c3                   	retq   

0000000000401b4a <fail>:
  401b4a:	48 83 ec 08          	sub    $0x8,%rsp
  401b4e:	83 3d 93 25 20 00 00 	cmpl   $0x0,0x202593(%rip)        # 6040e8 <is_checker>
  401b55:	74 0a                	je     401b61 <fail+0x17>
  401b57:	b8 00 00 00 00       	mov    $0x0,%eax
  401b5c:	e8 20 fd ff ff       	callq  401881 <check_fail>
  401b61:	89 fe                	mov    %edi,%esi
  401b63:	bf 00 00 00 00       	mov    $0x0,%edi
  401b68:	e8 95 fd ff ff       	callq  401902 <notify_server>
  401b6d:	48 83 c4 08          	add    $0x8,%rsp
  401b71:	c3                   	retq   

0000000000401b72 <bushandler>:
  401b72:	48 83 ec 08          	sub    $0x8,%rsp
  401b76:	83 3d 6b 25 20 00 00 	cmpl   $0x0,0x20256b(%rip)        # 6040e8 <is_checker>
  401b7d:	74 14                	je     401b93 <bushandler+0x21>
  401b7f:	bf 35 2f 40 00       	mov    $0x402f35,%edi
  401b84:	e8 f7 ef ff ff       	callq  400b80 <puts@plt>
  401b89:	b8 00 00 00 00       	mov    $0x0,%eax
  401b8e:	e8 ee fc ff ff       	callq  401881 <check_fail>
  401b93:	bf a0 30 40 00       	mov    $0x4030a0,%edi
  401b98:	e8 e3 ef ff ff       	callq  400b80 <puts@plt>
  401b9d:	bf 3f 2f 40 00       	mov    $0x402f3f,%edi
  401ba2:	e8 d9 ef ff ff       	callq  400b80 <puts@plt>
  401ba7:	be 00 00 00 00       	mov    $0x0,%esi
  401bac:	bf 00 00 00 00       	mov    $0x0,%edi
  401bb1:	e8 4c fd ff ff       	callq  401902 <notify_server>
  401bb6:	bf 01 00 00 00       	mov    $0x1,%edi
  401bbb:	e8 50 f1 ff ff       	callq  400d10 <exit@plt>

0000000000401bc0 <seghandler>:
  401bc0:	48 83 ec 08          	sub    $0x8,%rsp
  401bc4:	83 3d 1d 25 20 00 00 	cmpl   $0x0,0x20251d(%rip)        # 6040e8 <is_checker>
  401bcb:	74 14                	je     401be1 <seghandler+0x21>
  401bcd:	bf 55 2f 40 00       	mov    $0x402f55,%edi
  401bd2:	e8 a9 ef ff ff       	callq  400b80 <puts@plt>
  401bd7:	b8 00 00 00 00       	mov    $0x0,%eax
  401bdc:	e8 a0 fc ff ff       	callq  401881 <check_fail>
  401be1:	bf c0 30 40 00       	mov    $0x4030c0,%edi
  401be6:	e8 95 ef ff ff       	callq  400b80 <puts@plt>
  401beb:	bf 3f 2f 40 00       	mov    $0x402f3f,%edi
  401bf0:	e8 8b ef ff ff       	callq  400b80 <puts@plt>
  401bf5:	be 00 00 00 00       	mov    $0x0,%esi
  401bfa:	bf 00 00 00 00       	mov    $0x0,%edi
  401bff:	e8 fe fc ff ff       	callq  401902 <notify_server>
  401c04:	bf 01 00 00 00       	mov    $0x1,%edi
  401c09:	e8 02 f1 ff ff       	callq  400d10 <exit@plt>

0000000000401c0e <illegalhandler>:
  401c0e:	48 83 ec 08          	sub    $0x8,%rsp
  401c12:	83 3d cf 24 20 00 00 	cmpl   $0x0,0x2024cf(%rip)        # 6040e8 <is_checker>
  401c19:	74 14                	je     401c2f <illegalhandler+0x21>
  401c1b:	bf 68 2f 40 00       	mov    $0x402f68,%edi
  401c20:	e8 5b ef ff ff       	callq  400b80 <puts@plt>
  401c25:	b8 00 00 00 00       	mov    $0x0,%eax
  401c2a:	e8 52 fc ff ff       	callq  401881 <check_fail>
  401c2f:	bf e8 30 40 00       	mov    $0x4030e8,%edi
  401c34:	e8 47 ef ff ff       	callq  400b80 <puts@plt>
  401c39:	bf 3f 2f 40 00       	mov    $0x402f3f,%edi
  401c3e:	e8 3d ef ff ff       	callq  400b80 <puts@plt>
  401c43:	be 00 00 00 00       	mov    $0x0,%esi
  401c48:	bf 00 00 00 00       	mov    $0x0,%edi
  401c4d:	e8 b0 fc ff ff       	callq  401902 <notify_server>
  401c52:	bf 01 00 00 00       	mov    $0x1,%edi
  401c57:	e8 b4 f0 ff ff       	callq  400d10 <exit@plt>

0000000000401c5c <sigalrmhandler>:
  401c5c:	48 83 ec 08          	sub    $0x8,%rsp
  401c60:	83 3d 81 24 20 00 00 	cmpl   $0x0,0x202481(%rip)        # 6040e8 <is_checker>
  401c67:	74 14                	je     401c7d <sigalrmhandler+0x21>
  401c69:	bf 7c 2f 40 00       	mov    $0x402f7c,%edi
  401c6e:	e8 0d ef ff ff       	callq  400b80 <puts@plt>
  401c73:	b8 00 00 00 00       	mov    $0x0,%eax
  401c78:	e8 04 fc ff ff       	callq  401881 <check_fail>
  401c7d:	be 05 00 00 00       	mov    $0x5,%esi
  401c82:	bf 18 31 40 00       	mov    $0x403118,%edi
  401c87:	b8 00 00 00 00       	mov    $0x0,%eax
  401c8c:	e8 1f ef ff ff       	callq  400bb0 <printf@plt>
  401c91:	be 00 00 00 00       	mov    $0x0,%esi
  401c96:	bf 00 00 00 00       	mov    $0x0,%edi
  401c9b:	e8 62 fc ff ff       	callq  401902 <notify_server>
  401ca0:	bf 01 00 00 00       	mov    $0x1,%edi
  401ca5:	e8 66 f0 ff ff       	callq  400d10 <exit@plt>

0000000000401caa <launch>:
  401caa:	55                   	push   %rbp
  401cab:	48 89 e5             	mov    %rsp,%rbp
  401cae:	48 89 fa             	mov    %rdi,%rdx
  401cb1:	48 8d 47 1e          	lea    0x1e(%rdi),%rax
  401cb5:	48 83 e0 f0          	and    $0xfffffffffffffff0,%rax
  401cb9:	48 29 c4             	sub    %rax,%rsp
  401cbc:	48 8d 44 24 0f       	lea    0xf(%rsp),%rax
  401cc1:	48 83 e0 f0          	and    $0xfffffffffffffff0,%rax
  401cc5:	48 89 c7             	mov    %rax,%rdi
  401cc8:	be f4 00 00 00       	mov    $0xf4,%esi
  401ccd:	e8 ee ee ff ff       	callq  400bc0 <memset@plt>
  401cd2:	48 8b 05 a7 23 20 00 	mov    0x2023a7(%rip),%rax        # 604080 <stdin@@GLIBC_2.2.5>
  401cd9:	48 39 05 f0 23 20 00 	cmp    %rax,0x2023f0(%rip)        # 6040d0 <infile>
  401ce0:	75 0f                	jne    401cf1 <launch+0x47>
  401ce2:	bf 84 2f 40 00       	mov    $0x402f84,%edi
  401ce7:	b8 00 00 00 00       	mov    $0x0,%eax
  401cec:	e8 bf ee ff ff       	callq  400bb0 <printf@plt>
  401cf1:	c7 05 e1 23 20 00 00 	movl   $0x0,0x2023e1(%rip)        # 6040dc <vlevel>
  401cf8:	00 00 00 
  401cfb:	b8 00 00 00 00       	mov    $0x0,%eax
  401d00:	e8 ed fa ff ff       	callq  4017f2 <test>
  401d05:	83 3d dc 23 20 00 00 	cmpl   $0x0,0x2023dc(%rip)        # 6040e8 <is_checker>
  401d0c:	74 14                	je     401d22 <launch+0x78>
  401d0e:	bf 91 2f 40 00       	mov    $0x402f91,%edi
  401d13:	e8 68 ee ff ff       	callq  400b80 <puts@plt>
  401d18:	b8 00 00 00 00       	mov    $0x0,%eax
  401d1d:	e8 5f fb ff ff       	callq  401881 <check_fail>
  401d22:	bf 9c 2f 40 00       	mov    $0x402f9c,%edi
  401d27:	e8 54 ee ff ff       	callq  400b80 <puts@plt>
  401d2c:	c9                   	leaveq 
  401d2d:	c3                   	retq   

0000000000401d2e <stable_launch>:
  401d2e:	53                   	push   %rbx
  401d2f:	48 89 3d 92 23 20 00 	mov    %rdi,0x202392(%rip)        # 6040c8 <global_offset>
  401d36:	41 b9 00 00 00 00    	mov    $0x0,%r9d
  401d3c:	41 b8 00 00 00 00    	mov    $0x0,%r8d
  401d42:	b9 32 01 00 00       	mov    $0x132,%ecx
  401d47:	ba 07 00 00 00       	mov    $0x7,%edx
  401d4c:	be 00 00 10 00       	mov    $0x100000,%esi
  401d51:	bf 00 60 58 55       	mov    $0x55586000,%edi
  401d56:	e8 45 ee ff ff       	callq  400ba0 <mmap@plt>
  401d5b:	48 89 c3             	mov    %rax,%rbx
  401d5e:	48 3d 00 60 58 55    	cmp    $0x55586000,%rax
  401d64:	74 32                	je     401d98 <stable_launch+0x6a>
  401d66:	be 00 00 10 00       	mov    $0x100000,%esi
  401d6b:	48 89 c7             	mov    %rax,%rdi
  401d6e:	e8 3d ef ff ff       	callq  400cb0 <munmap@plt>
  401d73:	ba 00 60 58 55       	mov    $0x55586000,%edx
  401d78:	be 50 31 40 00       	mov    $0x403150,%esi
  401d7d:	48 8b 3d 0c 23 20 00 	mov    0x20230c(%rip),%rdi        # 604090 <stderr@@GLIBC_2.2.5>
  401d84:	b8 00 00 00 00       	mov    $0x0,%eax
  401d89:	e8 a2 ee ff ff       	callq  400c30 <fprintf@plt>
  401d8e:	bf 01 00 00 00       	mov    $0x1,%edi
  401d93:	e8 78 ef ff ff       	callq  400d10 <exit@plt>
  401d98:	48 8d 90 f8 ff 0f 00 	lea    0xffff8(%rax),%rdx
  401d9f:	48 89 15 6a 2f 20 00 	mov    %rdx,0x202f6a(%rip)        # 604d10 <stack_top>
  401da6:	48 89 e0             	mov    %rsp,%rax
  401da9:	48 89 d4             	mov    %rdx,%rsp
  401dac:	48 89 c2             	mov    %rax,%rdx
  401daf:	48 89 15 0a 23 20 00 	mov    %rdx,0x20230a(%rip)        # 6040c0 <global_save_stack>
  401db6:	48 8b 3d 0b 23 20 00 	mov    0x20230b(%rip),%rdi        # 6040c8 <global_offset>
  401dbd:	e8 e8 fe ff ff       	callq  401caa <launch>
  401dc2:	48 8b 05 f7 22 20 00 	mov    0x2022f7(%rip),%rax        # 6040c0 <global_save_stack>
  401dc9:	48 89 c4             	mov    %rax,%rsp
  401dcc:	be 00 00 10 00       	mov    $0x100000,%esi
  401dd1:	48 89 df             	mov    %rbx,%rdi
  401dd4:	e8 d7 ee ff ff       	callq  400cb0 <munmap@plt>
  401dd9:	5b                   	pop    %rbx
  401dda:	c3                   	retq   

0000000000401ddb <rio_readinitb>:
  401ddb:	89 37                	mov    %esi,(%rdi)
  401ddd:	c7 47 04 00 00 00 00 	movl   $0x0,0x4(%rdi)
  401de4:	48 8d 47 10          	lea    0x10(%rdi),%rax
  401de8:	48 89 47 08          	mov    %rax,0x8(%rdi)
  401dec:	c3                   	retq   

0000000000401ded <sigalrm_handler>:
  401ded:	48 83 ec 08          	sub    $0x8,%rsp
  401df1:	ba 00 00 00 00       	mov    $0x0,%edx
  401df6:	be 90 31 40 00       	mov    $0x403190,%esi
  401dfb:	48 8b 3d 8e 22 20 00 	mov    0x20228e(%rip),%rdi        # 604090 <stderr@@GLIBC_2.2.5>
  401e02:	b8 00 00 00 00       	mov    $0x0,%eax
  401e07:	e8 24 ee ff ff       	callq  400c30 <fprintf@plt>
  401e0c:	bf 01 00 00 00       	mov    $0x1,%edi
  401e11:	e8 fa ee ff ff       	callq  400d10 <exit@plt>

0000000000401e16 <urlencode>:
  401e16:	41 54                	push   %r12
  401e18:	55                   	push   %rbp
  401e19:	53                   	push   %rbx
  401e1a:	48 83 ec 10          	sub    $0x10,%rsp
  401e1e:	48 89 fb             	mov    %rdi,%rbx
  401e21:	48 89 f5             	mov    %rsi,%rbp
  401e24:	b8 00 00 00 00       	mov    $0x0,%eax
  401e29:	48 c7 c1 ff ff ff ff 	mov    $0xffffffffffffffff,%rcx
  401e30:	f2 ae                	repnz scas %es:(%rdi),%al
  401e32:	48 f7 d1             	not    %rcx
  401e35:	8d 41 ff             	lea    -0x1(%rcx),%eax
  401e38:	e9 93 00 00 00       	jmpq   401ed0 <urlencode+0xba>
  401e3d:	0f b6 13             	movzbl (%rbx),%edx
  401e40:	80 fa 2a             	cmp    $0x2a,%dl
  401e43:	0f 94 c1             	sete   %cl
  401e46:	80 fa 2d             	cmp    $0x2d,%dl
  401e49:	0f 94 c0             	sete   %al
  401e4c:	08 c1                	or     %al,%cl
  401e4e:	75 1f                	jne    401e6f <urlencode+0x59>
  401e50:	80 fa 2e             	cmp    $0x2e,%dl
  401e53:	74 1a                	je     401e6f <urlencode+0x59>
  401e55:	80 fa 5f             	cmp    $0x5f,%dl
  401e58:	74 15                	je     401e6f <urlencode+0x59>
  401e5a:	8d 42 d0             	lea    -0x30(%rdx),%eax
  401e5d:	3c 09                	cmp    $0x9,%al
  401e5f:	76 0e                	jbe    401e6f <urlencode+0x59>
  401e61:	8d 42 bf             	lea    -0x41(%rdx),%eax
  401e64:	3c 19                	cmp    $0x19,%al
  401e66:	76 07                	jbe    401e6f <urlencode+0x59>
  401e68:	8d 42 9f             	lea    -0x61(%rdx),%eax
  401e6b:	3c 19                	cmp    $0x19,%al
  401e6d:	77 09                	ja     401e78 <urlencode+0x62>
  401e6f:	88 55 00             	mov    %dl,0x0(%rbp)
  401e72:	48 8d 6d 01          	lea    0x1(%rbp),%rbp
  401e76:	eb 51                	jmp    401ec9 <urlencode+0xb3>
  401e78:	80 fa 20             	cmp    $0x20,%dl
  401e7b:	75 0a                	jne    401e87 <urlencode+0x71>
  401e7d:	c6 45 00 2b          	movb   $0x2b,0x0(%rbp)
  401e81:	48 8d 6d 01          	lea    0x1(%rbp),%rbp
  401e85:	eb 42                	jmp    401ec9 <urlencode+0xb3>
  401e87:	8d 42 e0             	lea    -0x20(%rdx),%eax
  401e8a:	3c 5f                	cmp    $0x5f,%al
  401e8c:	0f 96 c1             	setbe  %cl
  401e8f:	80 fa 09             	cmp    $0x9,%dl
  401e92:	0f 94 c0             	sete   %al
  401e95:	08 c1                	or     %al,%cl
  401e97:	74 45                	je     401ede <urlencode+0xc8>
  401e99:	0f b6 d2             	movzbl %dl,%edx
  401e9c:	be 30 32 40 00       	mov    $0x403230,%esi
  401ea1:	48 89 e7             	mov    %rsp,%rdi
  401ea4:	b8 00 00 00 00       	mov    $0x0,%eax
  401ea9:	e8 52 ee ff ff       	callq  400d00 <sprintf@plt>
  401eae:	0f b6 04 24          	movzbl (%rsp),%eax
  401eb2:	88 45 00             	mov    %al,0x0(%rbp)
  401eb5:	0f b6 44 24 01       	movzbl 0x1(%rsp),%eax
  401eba:	88 45 01             	mov    %al,0x1(%rbp)
  401ebd:	0f b6 44 24 02       	movzbl 0x2(%rsp),%eax
  401ec2:	88 45 02             	mov    %al,0x2(%rbp)
  401ec5:	48 8d 6d 03          	lea    0x3(%rbp),%rbp
  401ec9:	48 83 c3 01          	add    $0x1,%rbx
  401ecd:	44 89 e0             	mov    %r12d,%eax
  401ed0:	44 8d 60 ff          	lea    -0x1(%rax),%r12d
  401ed4:	85 c0                	test   %eax,%eax
  401ed6:	0f 85 61 ff ff ff    	jne    401e3d <urlencode+0x27>
  401edc:	eb 05                	jmp    401ee3 <urlencode+0xcd>
  401ede:	b8 ff ff ff ff       	mov    $0xffffffff,%eax
  401ee3:	48 83 c4 10          	add    $0x10,%rsp
  401ee7:	5b                   	pop    %rbx
  401ee8:	5d                   	pop    %rbp
  401ee9:	41 5c                	pop    %r12
  401eeb:	c3                   	retq   

0000000000401eec <rio_writen>:
  401eec:	41 55                	push   %r13
  401eee:	41 54                	push   %r12
  401ef0:	55                   	push   %rbp
  401ef1:	53                   	push   %rbx
  401ef2:	48 83 ec 08          	sub    $0x8,%rsp
  401ef6:	41 89 fc             	mov    %edi,%r12d
  401ef9:	48 89 f5             	mov    %rsi,%rbp
  401efc:	49 89 d5             	mov    %rdx,%r13
  401eff:	48 89 d3             	mov    %rdx,%rbx
  401f02:	eb 28                	jmp    401f2c <rio_writen+0x40>
  401f04:	48 89 da             	mov    %rbx,%rdx
  401f07:	48 89 ee             	mov    %rbp,%rsi
  401f0a:	44 89 e7             	mov    %r12d,%edi
  401f0d:	e8 7e ec ff ff       	callq  400b90 <write@plt>
  401f12:	48 85 c0             	test   %rax,%rax
  401f15:	7f 0f                	jg     401f26 <rio_writen+0x3a>
  401f17:	e8 24 ec ff ff       	callq  400b40 <__errno_location@plt>
  401f1c:	83 38 04             	cmpl   $0x4,(%rax)
  401f1f:	75 15                	jne    401f36 <rio_writen+0x4a>
  401f21:	b8 00 00 00 00       	mov    $0x0,%eax
  401f26:	48 29 c3             	sub    %rax,%rbx
  401f29:	48 01 c5             	add    %rax,%rbp
  401f2c:	48 85 db             	test   %rbx,%rbx
  401f2f:	75 d3                	jne    401f04 <rio_writen+0x18>
  401f31:	4c 89 e8             	mov    %r13,%rax
  401f34:	eb 07                	jmp    401f3d <rio_writen+0x51>
  401f36:	48 c7 c0 ff ff ff ff 	mov    $0xffffffffffffffff,%rax
  401f3d:	48 83 c4 08          	add    $0x8,%rsp
  401f41:	5b                   	pop    %rbx
  401f42:	5d                   	pop    %rbp
  401f43:	41 5c                	pop    %r12
  401f45:	41 5d                	pop    %r13
  401f47:	c3                   	retq   

0000000000401f48 <rio_read>:
  401f48:	41 56                	push   %r14
  401f4a:	41 55                	push   %r13
  401f4c:	41 54                	push   %r12
  401f4e:	55                   	push   %rbp
  401f4f:	53                   	push   %rbx
  401f50:	48 89 fb             	mov    %rdi,%rbx
  401f53:	49 89 f5             	mov    %rsi,%r13
  401f56:	49 89 d4             	mov    %rdx,%r12
  401f59:	eb 2e                	jmp    401f89 <rio_read+0x41>
  401f5b:	48 8d 6b 10          	lea    0x10(%rbx),%rbp
  401f5f:	ba 00 20 00 00       	mov    $0x2000,%edx
  401f64:	48 89 ee             	mov    %rbp,%rsi
  401f67:	8b 3b                	mov    (%rbx),%edi
  401f69:	e8 82 ec ff ff       	callq  400bf0 <read@plt>
  401f6e:	89 43 04             	mov    %eax,0x4(%rbx)
  401f71:	85 c0                	test   %eax,%eax
  401f73:	79 0c                	jns    401f81 <rio_read+0x39>
  401f75:	e8 c6 eb ff ff       	callq  400b40 <__errno_location@plt>
  401f7a:	83 38 04             	cmpl   $0x4,(%rax)
  401f7d:	74 0a                	je     401f89 <rio_read+0x41>
  401f7f:	eb 3b                	jmp    401fbc <rio_read+0x74>
  401f81:	85 c0                	test   %eax,%eax
  401f83:	74 40                	je     401fc5 <rio_read+0x7d>
  401f85:	48 89 6b 08          	mov    %rbp,0x8(%rbx)
  401f89:	8b 43 04             	mov    0x4(%rbx),%eax
  401f8c:	85 c0                	test   %eax,%eax
  401f8e:	7e cb                	jle    401f5b <rio_read+0x13>
  401f90:	45 89 e6             	mov    %r12d,%r14d
  401f93:	89 c2                	mov    %eax,%edx
  401f95:	4c 39 e2             	cmp    %r12,%rdx
  401f98:	73 03                	jae    401f9d <rio_read+0x55>
  401f9a:	41 89 c6             	mov    %eax,%r14d
  401f9d:	49 63 ee             	movslq %r14d,%rbp
  401fa0:	48 8b 73 08          	mov    0x8(%rbx),%rsi
  401fa4:	48 89 ea             	mov    %rbp,%rdx
  401fa7:	4c 89 ef             	mov    %r13,%rdi
  401faa:	e8 b1 ec ff ff       	callq  400c60 <memcpy@plt>
  401faf:	48 01 6b 08          	add    %rbp,0x8(%rbx)
  401fb3:	44 29 73 04          	sub    %r14d,0x4(%rbx)
  401fb7:	48 89 e8             	mov    %rbp,%rax
  401fba:	eb 0e                	jmp    401fca <rio_read+0x82>
  401fbc:	48 c7 c0 ff ff ff ff 	mov    $0xffffffffffffffff,%rax
  401fc3:	eb 05                	jmp    401fca <rio_read+0x82>
  401fc5:	b8 00 00 00 00       	mov    $0x0,%eax
  401fca:	5b                   	pop    %rbx
  401fcb:	5d                   	pop    %rbp
  401fcc:	41 5c                	pop    %r12
  401fce:	41 5d                	pop    %r13
  401fd0:	41 5e                	pop    %r14
  401fd2:	c3                   	retq   

0000000000401fd3 <rio_readlineb>:
  401fd3:	41 55                	push   %r13
  401fd5:	41 54                	push   %r12
  401fd7:	55                   	push   %rbp
  401fd8:	53                   	push   %rbx
  401fd9:	48 83 ec 18          	sub    $0x18,%rsp
  401fdd:	49 89 fd             	mov    %rdi,%r13
  401fe0:	48 89 f5             	mov    %rsi,%rbp
  401fe3:	49 89 d4             	mov    %rdx,%r12
  401fe6:	bb 01 00 00 00       	mov    $0x1,%ebx
  401feb:	eb 3f                	jmp    40202c <rio_readlineb+0x59>
  401fed:	ba 01 00 00 00       	mov    $0x1,%edx
  401ff2:	48 8d 74 24 0f       	lea    0xf(%rsp),%rsi
  401ff7:	4c 89 ef             	mov    %r13,%rdi
  401ffa:	e8 49 ff ff ff       	callq  401f48 <rio_read>
  401fff:	83 f8 01             	cmp    $0x1,%eax
  402002:	75 15                	jne    402019 <rio_readlineb+0x46>
  402004:	48 8d 45 01          	lea    0x1(%rbp),%rax
  402008:	0f b6 54 24 0f       	movzbl 0xf(%rsp),%edx
  40200d:	88 55 00             	mov    %dl,0x0(%rbp)
  402010:	80 7c 24 0f 0a       	cmpb   $0xa,0xf(%rsp)
  402015:	75 0e                	jne    402025 <rio_readlineb+0x52>
  402017:	eb 1a                	jmp    402033 <rio_readlineb+0x60>
  402019:	85 c0                	test   %eax,%eax
  40201b:	75 22                	jne    40203f <rio_readlineb+0x6c>
  40201d:	48 83 fb 01          	cmp    $0x1,%rbx
  402021:	75 13                	jne    402036 <rio_readlineb+0x63>
  402023:	eb 23                	jmp    402048 <rio_readlineb+0x75>
  402025:	48 83 c3 01          	add    $0x1,%rbx
  402029:	48 89 c5             	mov    %rax,%rbp
  40202c:	4c 39 e3             	cmp    %r12,%rbx
  40202f:	72 bc                	jb     401fed <rio_readlineb+0x1a>
  402031:	eb 03                	jmp    402036 <rio_readlineb+0x63>
  402033:	48 89 c5             	mov    %rax,%rbp
  402036:	c6 45 00 00          	movb   $0x0,0x0(%rbp)
  40203a:	48 89 d8             	mov    %rbx,%rax
  40203d:	eb 0e                	jmp    40204d <rio_readlineb+0x7a>
  40203f:	48 c7 c0 ff ff ff ff 	mov    $0xffffffffffffffff,%rax
  402046:	eb 05                	jmp    40204d <rio_readlineb+0x7a>
  402048:	b8 00 00 00 00       	mov    $0x0,%eax
  40204d:	48 83 c4 18          	add    $0x18,%rsp
  402051:	5b                   	pop    %rbx
  402052:	5d                   	pop    %rbp
  402053:	41 5c                	pop    %r12
  402055:	41 5d                	pop    %r13
  402057:	c3                   	retq   

0000000000402058 <submitr>:
  402058:	41 57                	push   %r15
  40205a:	41 56                	push   %r14
  40205c:	41 55                	push   %r13
  40205e:	41 54                	push   %r12
  402060:	55                   	push   %rbp
  402061:	53                   	push   %rbx
  402062:	48 81 ec 48 a0 00 00 	sub    $0xa048,%rsp
  402069:	49 89 fc             	mov    %rdi,%r12
  40206c:	89 74 24 04          	mov    %esi,0x4(%rsp)
  402070:	49 89 d7             	mov    %rdx,%r15
  402073:	49 89 ce             	mov    %rcx,%r14
  402076:	4c 89 44 24 08       	mov    %r8,0x8(%rsp)
  40207b:	4d 89 cd             	mov    %r9,%r13
  40207e:	48 8b 9c 24 80 a0 00 	mov    0xa080(%rsp),%rbx
  402085:	00 
  402086:	c7 84 24 1c 20 00 00 	movl   $0x0,0x201c(%rsp)
  40208d:	00 00 00 00 
  402091:	ba 00 00 00 00       	mov    $0x0,%edx
  402096:	be 01 00 00 00       	mov    $0x1,%esi
  40209b:	bf 02 00 00 00       	mov    $0x2,%edi
  4020a0:	e8 8b ec ff ff       	callq  400d30 <socket@plt>
  4020a5:	89 c5                	mov    %eax,%ebp
  4020a7:	85 c0                	test   %eax,%eax
  4020a9:	79 4e                	jns    4020f9 <submitr+0xa1>
  4020ab:	48 b8 45 72 72 6f 72 	movabs $0x43203a726f727245,%rax
  4020b2:	3a 20 43 
  4020b5:	48 89 03             	mov    %rax,(%rbx)
  4020b8:	48 b8 6c 69 65 6e 74 	movabs $0x6e7520746e65696c,%rax
  4020bf:	20 75 6e 
  4020c2:	48 89 43 08          	mov    %rax,0x8(%rbx)
  4020c6:	48 b8 61 62 6c 65 20 	movabs $0x206f7420656c6261,%rax
  4020cd:	74 6f 20 
  4020d0:	48 89 43 10          	mov    %rax,0x10(%rbx)
  4020d4:	48 b8 63 72 65 61 74 	movabs $0x7320657461657263,%rax
  4020db:	65 20 73 
  4020de:	48 89 43 18          	mov    %rax,0x18(%rbx)
  4020e2:	c7 43 20 6f 63 6b 65 	movl   $0x656b636f,0x20(%rbx)
  4020e9:	66 c7 43 24 74 00    	movw   $0x74,0x24(%rbx)
  4020ef:	b8 ff ff ff ff       	mov    $0xffffffff,%eax
  4020f4:	e9 86 06 00 00       	jmpq   40277f <submitr+0x727>
  4020f9:	4c 89 e7             	mov    %r12,%rdi
  4020fc:	e8 1f eb ff ff       	callq  400c20 <gethostbyname@plt>
  402101:	48 85 c0             	test   %rax,%rax
  402104:	75 67                	jne    40216d <submitr+0x115>
  402106:	48 b8 45 72 72 6f 72 	movabs $0x44203a726f727245,%rax
  40210d:	3a 20 44 
  402110:	48 89 03             	mov    %rax,(%rbx)
  402113:	48 b8 4e 53 20 69 73 	movabs $0x6e7520736920534e,%rax
  40211a:	20 75 6e 
  40211d:	48 89 43 08          	mov    %rax,0x8(%rbx)
  402121:	48 b8 61 62 6c 65 20 	movabs $0x206f7420656c6261,%rax
  402128:	74 6f 20 
  40212b:	48 89 43 10          	mov    %rax,0x10(%rbx)
  40212f:	48 b8 72 65 73 6f 6c 	movabs $0x2065766c6f736572,%rax
  402136:	76 65 20 
  402139:	48 89 43 18          	mov    %rax,0x18(%rbx)
  40213d:	48 b8 73 65 72 76 65 	movabs $0x6120726576726573,%rax
  402144:	72 20 61 
  402147:	48 89 43 20          	mov    %rax,0x20(%rbx)
  40214b:	c7 43 28 64 64 72 65 	movl   $0x65726464,0x28(%rbx)
  402152:	66 c7 43 2c 73 73    	movw   $0x7373,0x2c(%rbx)
  402158:	c6 43 2e 00          	movb   $0x0,0x2e(%rbx)
  40215c:	89 ef                	mov    %ebp,%edi
  40215e:	e8 7d ea ff ff       	callq  400be0 <close@plt>
  402163:	b8 ff ff ff ff       	mov    $0xffffffff,%eax
  402168:	e9 12 06 00 00       	jmpq   40277f <submitr+0x727>
  40216d:	48 c7 84 24 30 a0 00 	movq   $0x0,0xa030(%rsp)
  402174:	00 00 00 00 00 
  402179:	48 c7 84 24 38 a0 00 	movq   $0x0,0xa038(%rsp)
  402180:	00 00 00 00 00 
  402185:	66 c7 84 24 30 a0 00 	movw   $0x2,0xa030(%rsp)
  40218c:	00 02 00 
  40218f:	48 8b 48 18          	mov    0x18(%rax),%rcx
  402193:	48 63 50 14          	movslq 0x14(%rax),%rdx
  402197:	48 8d b4 24 34 a0 00 	lea    0xa034(%rsp),%rsi
  40219e:	00 
  40219f:	48 8b 39             	mov    (%rcx),%rdi
  4021a2:	e8 19 eb ff ff       	callq  400cc0 <bcopy@plt>
  4021a7:	0f b7 44 24 04       	movzwl 0x4(%rsp),%eax
  4021ac:	66 c1 c8 08          	ror    $0x8,%ax
  4021b0:	66 89 84 24 32 a0 00 	mov    %ax,0xa032(%rsp)
  4021b7:	00 
  4021b8:	ba 10 00 00 00       	mov    $0x10,%edx
  4021bd:	48 8d b4 24 30 a0 00 	lea    0xa030(%rsp),%rsi
  4021c4:	00 
  4021c5:	89 ef                	mov    %ebp,%edi
  4021c7:	e8 54 eb ff ff       	callq  400d20 <connect@plt>
  4021cc:	85 c0                	test   %eax,%eax
  4021ce:	79 59                	jns    402229 <submitr+0x1d1>
  4021d0:	48 b8 45 72 72 6f 72 	movabs $0x55203a726f727245,%rax
  4021d7:	3a 20 55 
  4021da:	48 89 03             	mov    %rax,(%rbx)
  4021dd:	48 b8 6e 61 62 6c 65 	movabs $0x6f7420656c62616e,%rax
  4021e4:	20 74 6f 
  4021e7:	48 89 43 08          	mov    %rax,0x8(%rbx)
  4021eb:	48 b8 20 63 6f 6e 6e 	movabs $0x7463656e6e6f6320,%rax
  4021f2:	65 63 74 
  4021f5:	48 89 43 10          	mov    %rax,0x10(%rbx)
  4021f9:	48 b8 20 74 6f 20 74 	movabs $0x20656874206f7420,%rax
  402200:	68 65 20 
  402203:	48 89 43 18          	mov    %rax,0x18(%rbx)
  402207:	c7 43 20 73 65 72 76 	movl   $0x76726573,0x20(%rbx)
  40220e:	66 c7 43 24 65 72    	movw   $0x7265,0x24(%rbx)
  402214:	c6 43 26 00          	movb   $0x0,0x26(%rbx)
  402218:	89 ef                	mov    %ebp,%edi
  40221a:	e8 c1 e9 ff ff       	callq  400be0 <close@plt>
  40221f:	b8 ff ff ff ff       	mov    $0xffffffff,%eax
  402224:	e9 56 05 00 00       	jmpq   40277f <submitr+0x727>
  402229:	49 c7 c0 ff ff ff ff 	mov    $0xffffffffffffffff,%r8
  402230:	4c 89 ef             	mov    %r13,%rdi
  402233:	b8 00 00 00 00       	mov    $0x0,%eax
  402238:	4c 89 c1             	mov    %r8,%rcx
  40223b:	f2 ae                	repnz scas %es:(%rdi),%al
  40223d:	48 f7 d1             	not    %rcx
  402240:	48 89 ce             	mov    %rcx,%rsi
  402243:	4c 89 ff             	mov    %r15,%rdi
  402246:	4c 89 c1             	mov    %r8,%rcx
  402249:	f2 ae                	repnz scas %es:(%rdi),%al
  40224b:	48 f7 d1             	not    %rcx
  40224e:	48 89 ca             	mov    %rcx,%rdx
  402251:	4c 89 f7             	mov    %r14,%rdi
  402254:	4c 89 c1             	mov    %r8,%rcx
  402257:	f2 ae                	repnz scas %es:(%rdi),%al
  402259:	48 29 ca             	sub    %rcx,%rdx
  40225c:	48 8b 7c 24 08       	mov    0x8(%rsp),%rdi
  402261:	4c 89 c1             	mov    %r8,%rcx
  402264:	f2 ae                	repnz scas %es:(%rdi),%al
  402266:	48 29 ca             	sub    %rcx,%rdx
  402269:	48 8d 44 76 fd       	lea    -0x3(%rsi,%rsi,2),%rax
  40226e:	48 8d 44 02 7b       	lea    0x7b(%rdx,%rax,1),%rax
  402273:	48 3d 00 20 00 00    	cmp    $0x2000,%rax
  402279:	76 72                	jbe    4022ed <submitr+0x295>
  40227b:	48 b8 45 72 72 6f 72 	movabs $0x52203a726f727245,%rax
  402282:	3a 20 52 
  402285:	48 89 03             	mov    %rax,(%rbx)
  402288:	48 b8 65 73 75 6c 74 	movabs $0x747320746c757365,%rax
  40228f:	20 73 74 
  402292:	48 89 43 08          	mov    %rax,0x8(%rbx)
  402296:	48 b8 72 69 6e 67 20 	movabs $0x6f6f7420676e6972,%rax
  40229d:	74 6f 6f 
  4022a0:	48 89 43 10          	mov    %rax,0x10(%rbx)
  4022a4:	48 b8 20 6c 61 72 67 	movabs $0x202e656772616c20,%rax
  4022ab:	65 2e 20 
  4022ae:	48 89 43 18          	mov    %rax,0x18(%rbx)
  4022b2:	48 b8 49 6e 63 72 65 	movabs $0x6573616572636e49,%rax
  4022b9:	61 73 65 
  4022bc:	48 89 43 20          	mov    %rax,0x20(%rbx)
  4022c0:	48 b8 20 53 55 42 4d 	movabs $0x5254494d42555320,%rax
  4022c7:	49 54 52 
  4022ca:	48 89 43 28          	mov    %rax,0x28(%rbx)
  4022ce:	48 b8 5f 4d 41 58 42 	movabs $0x46554258414d5f,%rax
  4022d5:	55 46 00 
  4022d8:	48 89 43 30          	mov    %rax,0x30(%rbx)
  4022dc:	89 ef                	mov    %ebp,%edi
  4022de:	e8 fd e8 ff ff       	callq  400be0 <close@plt>
  4022e3:	b8 ff ff ff ff       	mov    $0xffffffff,%eax
  4022e8:	e9 92 04 00 00       	jmpq   40277f <submitr+0x727>
  4022ed:	48 8d b4 24 20 40 00 	lea    0x4020(%rsp),%rsi
  4022f4:	00 
  4022f5:	b9 00 04 00 00       	mov    $0x400,%ecx
  4022fa:	b8 00 00 00 00       	mov    $0x0,%eax
  4022ff:	48 89 f7             	mov    %rsi,%rdi
  402302:	f3 48 ab             	rep stos %rax,%es:(%rdi)
  402305:	4c 89 ef             	mov    %r13,%rdi
  402308:	e8 09 fb ff ff       	callq  401e16 <urlencode>
  40230d:	85 c0                	test   %eax,%eax
  40230f:	0f 89 8a 00 00 00    	jns    40239f <submitr+0x347>
  402315:	48 b8 45 72 72 6f 72 	movabs $0x52203a726f727245,%rax
  40231c:	3a 20 52 
  40231f:	48 89 03             	mov    %rax,(%rbx)
  402322:	48 b8 65 73 75 6c 74 	movabs $0x747320746c757365,%rax
  402329:	20 73 74 
  40232c:	48 89 43 08          	mov    %rax,0x8(%rbx)
  402330:	48 b8 72 69 6e 67 20 	movabs $0x6e6f6320676e6972,%rax
  402337:	63 6f 6e 
  40233a:	48 89 43 10          	mov    %rax,0x10(%rbx)
  40233e:	48 b8 74 61 69 6e 73 	movabs $0x6e6120736e696174,%rax
  402345:	20 61 6e 
  402348:	48 89 43 18          	mov    %rax,0x18(%rbx)
  40234c:	48 b8 20 69 6c 6c 65 	movabs $0x6c6167656c6c6920,%rax
  402353:	67 61 6c 
  402356:	48 89 43 20          	mov    %rax,0x20(%rbx)
  40235a:	48 b8 20 6f 72 20 75 	movabs $0x72706e7520726f20,%rax
  402361:	6e 70 72 
  402364:	48 89 43 28          	mov    %rax,0x28(%rbx)
  402368:	48 b8 69 6e 74 61 62 	movabs $0x20656c6261746e69,%rax
  40236f:	6c 65 20 
  402372:	48 89 43 30          	mov    %rax,0x30(%rbx)
  402376:	48 b8 63 68 61 72 61 	movabs $0x6574636172616863,%rax
  40237d:	63 74 65 
  402380:	48 89 43 38          	mov    %rax,0x38(%rbx)
  402384:	66 c7 43 40 72 2e    	movw   $0x2e72,0x40(%rbx)
  40238a:	c6 43 42 00          	movb   $0x0,0x42(%rbx)
  40238e:	89 ef                	mov    %ebp,%edi
  402390:	e8 4b e8 ff ff       	callq  400be0 <close@plt>
  402395:	b8 ff ff ff ff       	mov    $0xffffffff,%eax
  40239a:	e9 e0 03 00 00       	jmpq   40277f <submitr+0x727>
  40239f:	4d 89 e1             	mov    %r12,%r9
  4023a2:	4c 8d 84 24 20 40 00 	lea    0x4020(%rsp),%r8
  4023a9:	00 
  4023aa:	4c 89 f9             	mov    %r15,%rcx
  4023ad:	4c 89 f2             	mov    %r14,%rdx
  4023b0:	be b8 31 40 00       	mov    $0x4031b8,%esi
  4023b5:	48 8d bc 24 20 60 00 	lea    0x6020(%rsp),%rdi
  4023bc:	00 
  4023bd:	b8 00 00 00 00       	mov    $0x0,%eax
  4023c2:	e8 39 e9 ff ff       	callq  400d00 <sprintf@plt>
  4023c7:	48 8d bc 24 20 60 00 	lea    0x6020(%rsp),%rdi
  4023ce:	00 
  4023cf:	b8 00 00 00 00       	mov    $0x0,%eax
  4023d4:	48 c7 c1 ff ff ff ff 	mov    $0xffffffffffffffff,%rcx
  4023db:	f2 ae                	repnz scas %es:(%rdi),%al
  4023dd:	48 f7 d1             	not    %rcx
  4023e0:	48 8d 51 ff          	lea    -0x1(%rcx),%rdx
  4023e4:	48 8d b4 24 20 60 00 	lea    0x6020(%rsp),%rsi
  4023eb:	00 
  4023ec:	89 ef                	mov    %ebp,%edi
  4023ee:	e8 f9 fa ff ff       	callq  401eec <rio_writen>
  4023f3:	48 85 c0             	test   %rax,%rax
  4023f6:	79 6e                	jns    402466 <submitr+0x40e>
  4023f8:	48 b8 45 72 72 6f 72 	movabs $0x43203a726f727245,%rax
  4023ff:	3a 20 43 
  402402:	48 89 03             	mov    %rax,(%rbx)
  402405:	48 b8 6c 69 65 6e 74 	movabs $0x6e7520746e65696c,%rax
  40240c:	20 75 6e 
  40240f:	48 89 43 08          	mov    %rax,0x8(%rbx)
  402413:	48 b8 61 62 6c 65 20 	movabs $0x206f7420656c6261,%rax
  40241a:	74 6f 20 
  40241d:	48 89 43 10          	mov    %rax,0x10(%rbx)
  402421:	48 b8 77 72 69 74 65 	movabs $0x6f74206574697277,%rax
  402428:	20 74 6f 
  40242b:	48 89 43 18          	mov    %rax,0x18(%rbx)
  40242f:	48 b8 20 74 68 65 20 	movabs $0x7365722065687420,%rax
  402436:	72 65 73 
  402439:	48 89 43 20          	mov    %rax,0x20(%rbx)
  40243d:	48 b8 75 6c 74 20 73 	movabs $0x7672657320746c75,%rax
  402444:	65 72 76 
  402447:	48 89 43 28          	mov    %rax,0x28(%rbx)
  40244b:	66 c7 43 30 65 72    	movw   $0x7265,0x30(%rbx)
  402451:	c6 43 32 00          	movb   $0x0,0x32(%rbx)
  402455:	89 ef                	mov    %ebp,%edi
  402457:	e8 84 e7 ff ff       	callq  400be0 <close@plt>
  40245c:	b8 ff ff ff ff       	mov    $0xffffffff,%eax
  402461:	e9 19 03 00 00       	jmpq   40277f <submitr+0x727>
  402466:	89 ee                	mov    %ebp,%esi
  402468:	48 8d bc 24 20 80 00 	lea    0x8020(%rsp),%rdi
  40246f:	00 
  402470:	e8 66 f9 ff ff       	callq  401ddb <rio_readinitb>
  402475:	ba 00 20 00 00       	mov    $0x2000,%edx
  40247a:	48 8d b4 24 20 60 00 	lea    0x6020(%rsp),%rsi
  402481:	00 
  402482:	48 8d bc 24 20 80 00 	lea    0x8020(%rsp),%rdi
  402489:	00 
  40248a:	e8 44 fb ff ff       	callq  401fd3 <rio_readlineb>
  40248f:	48 85 c0             	test   %rax,%rax
  402492:	7f 7d                	jg     402511 <submitr+0x4b9>
  402494:	48 b8 45 72 72 6f 72 	movabs $0x43203a726f727245,%rax
  40249b:	3a 20 43 
  40249e:	48 89 03             	mov    %rax,(%rbx)
  4024a1:	48 b8 6c 69 65 6e 74 	movabs $0x6e7520746e65696c,%rax
  4024a8:	20 75 6e 
  4024ab:	48 89 43 08          	mov    %rax,0x8(%rbx)
  4024af:	48 b8 61 62 6c 65 20 	movabs $0x206f7420656c6261,%rax
  4024b6:	74 6f 20 
  4024b9:	48 89 43 10          	mov    %rax,0x10(%rbx)
  4024bd:	48 b8 72 65 61 64 20 	movabs $0x7269662064616572,%rax
  4024c4:	66 69 72 
  4024c7:	48 89 43 18          	mov    %rax,0x18(%rbx)
  4024cb:	48 b8 73 74 20 68 65 	movabs $0x6564616568207473,%rax
  4024d2:	61 64 65 
  4024d5:	48 89 43 20          	mov    %rax,0x20(%rbx)
  4024d9:	48 b8 72 20 66 72 6f 	movabs $0x72206d6f72662072,%rax
  4024e0:	6d 20 72 
  4024e3:	48 89 43 28          	mov    %rax,0x28(%rbx)
  4024e7:	48 b8 65 73 75 6c 74 	movabs $0x657320746c757365,%rax
  4024ee:	20 73 65 
  4024f1:	48 89 43 30          	mov    %rax,0x30(%rbx)
  4024f5:	c7 43 38 72 76 65 72 	movl   $0x72657672,0x38(%rbx)
  4024fc:	c6 43 3c 00          	movb   $0x0,0x3c(%rbx)
  402500:	89 ef                	mov    %ebp,%edi
  402502:	e8 d9 e6 ff ff       	callq  400be0 <close@plt>
  402507:	b8 ff ff ff ff       	mov    $0xffffffff,%eax
  40250c:	e9 6e 02 00 00       	jmpq   40277f <submitr+0x727>
  402511:	4c 8d 44 24 10       	lea    0x10(%rsp),%r8
  402516:	48 8d 8c 24 1c 20 00 	lea    0x201c(%rsp),%rcx
  40251d:	00 
  40251e:	48 8d 94 24 20 20 00 	lea    0x2020(%rsp),%rdx
  402525:	00 
  402526:	be 37 32 40 00       	mov    $0x403237,%esi
  40252b:	48 8d bc 24 20 60 00 	lea    0x6020(%rsp),%rdi
  402532:	00 
  402533:	b8 00 00 00 00       	mov    $0x0,%eax
  402538:	e8 63 e7 ff ff       	callq  400ca0 <__isoc99_sscanf@plt>
  40253d:	e9 98 00 00 00       	jmpq   4025da <submitr+0x582>
  402542:	ba 00 20 00 00       	mov    $0x2000,%edx
  402547:	48 8d b4 24 20 60 00 	lea    0x6020(%rsp),%rsi
  40254e:	00 
  40254f:	48 8d bc 24 20 80 00 	lea    0x8020(%rsp),%rdi
  402556:	00 
  402557:	e8 77 fa ff ff       	callq  401fd3 <rio_readlineb>
  40255c:	48 85 c0             	test   %rax,%rax
  40255f:	7f 79                	jg     4025da <submitr+0x582>
  402561:	48 b8 45 72 72 6f 72 	movabs $0x43203a726f727245,%rax
  402568:	3a 20 43 
  40256b:	48 89 03             	mov    %rax,(%rbx)
  40256e:	48 b8 6c 69 65 6e 74 	movabs $0x6e7520746e65696c,%rax
  402575:	20 75 6e 
  402578:	48 89 43 08          	mov    %rax,0x8(%rbx)
  40257c:	48 b8 61 62 6c 65 20 	movabs $0x206f7420656c6261,%rax
  402583:	74 6f 20 
  402586:	48 89 43 10          	mov    %rax,0x10(%rbx)
  40258a:	48 b8 72 65 61 64 20 	movabs $0x6165682064616572,%rax
  402591:	68 65 61 
  402594:	48 89 43 18          	mov    %rax,0x18(%rbx)
  402598:	48 b8 64 65 72 73 20 	movabs $0x6f72662073726564,%rax
  40259f:	66 72 6f 
  4025a2:	48 89 43 20          	mov    %rax,0x20(%rbx)
  4025a6:	48 b8 6d 20 74 68 65 	movabs $0x657220656874206d,%rax
  4025ad:	20 72 65 
  4025b0:	48 89 43 28          	mov    %rax,0x28(%rbx)
  4025b4:	48 b8 73 75 6c 74 20 	movabs $0x72657320746c7573,%rax
  4025bb:	73 65 72 
  4025be:	48 89 43 30          	mov    %rax,0x30(%rbx)
  4025c2:	c7 43 38 76 65 72 00 	movl   $0x726576,0x38(%rbx)
  4025c9:	89 ef                	mov    %ebp,%edi
  4025cb:	e8 10 e6 ff ff       	callq  400be0 <close@plt>
  4025d0:	b8 ff ff ff ff       	mov    $0xffffffff,%eax
  4025d5:	e9 a5 01 00 00       	jmpq   40277f <submitr+0x727>
  4025da:	0f b6 94 24 20 60 00 	movzbl 0x6020(%rsp),%edx
  4025e1:	00 
  4025e2:	b8 0d 00 00 00       	mov    $0xd,%eax
  4025e7:	29 d0                	sub    %edx,%eax
  4025e9:	75 1b                	jne    402606 <submitr+0x5ae>
  4025eb:	0f b6 94 24 21 60 00 	movzbl 0x6021(%rsp),%edx
  4025f2:	00 
  4025f3:	b8 0a 00 00 00       	mov    $0xa,%eax
  4025f8:	29 d0                	sub    %edx,%eax
  4025fa:	75 0a                	jne    402606 <submitr+0x5ae>
  4025fc:	0f b6 84 24 22 60 00 	movzbl 0x6022(%rsp),%eax
  402603:	00 
  402604:	f7 d8                	neg    %eax
  402606:	85 c0                	test   %eax,%eax
  402608:	0f 85 34 ff ff ff    	jne    402542 <submitr+0x4ea>
  40260e:	ba 00 20 00 00       	mov    $0x2000,%edx
  402613:	48 8d b4 24 20 60 00 	lea    0x6020(%rsp),%rsi
  40261a:	00 
  40261b:	48 8d bc 24 20 80 00 	lea    0x8020(%rsp),%rdi
  402622:	00 
  402623:	e8 ab f9 ff ff       	callq  401fd3 <rio_readlineb>
  402628:	48 85 c0             	test   %rax,%rax
  40262b:	0f 8f 83 00 00 00    	jg     4026b4 <submitr+0x65c>
  402631:	48 b8 45 72 72 6f 72 	movabs $0x43203a726f727245,%rax
  402638:	3a 20 43 
  40263b:	48 89 03             	mov    %rax,(%rbx)
  40263e:	48 b8 6c 69 65 6e 74 	movabs $0x6e7520746e65696c,%rax
  402645:	20 75 6e 
  402648:	48 89 43 08          	mov    %rax,0x8(%rbx)
  40264c:	48 b8 61 62 6c 65 20 	movabs $0x206f7420656c6261,%rax
  402653:	74 6f 20 
  402656:	48 89 43 10          	mov    %rax,0x10(%rbx)
  40265a:	48 b8 72 65 61 64 20 	movabs $0x6174732064616572,%rax
  402661:	73 74 61 
  402664:	48 89 43 18          	mov    %rax,0x18(%rbx)
  402668:	48 b8 74 75 73 20 6d 	movabs $0x7373656d20737574,%rax
  40266f:	65 73 73 
  402672:	48 89 43 20          	mov    %rax,0x20(%rbx)
  402676:	48 b8 61 67 65 20 66 	movabs $0x6d6f726620656761,%rax
  40267d:	72 6f 6d 
  402680:	48 89 43 28          	mov    %rax,0x28(%rbx)
  402684:	48 b8 20 72 65 73 75 	movabs $0x20746c7573657220,%rax
  40268b:	6c 74 20 
  40268e:	48 89 43 30          	mov    %rax,0x30(%rbx)
  402692:	c7 43 38 73 65 72 76 	movl   $0x76726573,0x38(%rbx)
  402699:	66 c7 43 3c 65 72    	movw   $0x7265,0x3c(%rbx)
  40269f:	c6 43 3e 00          	movb   $0x0,0x3e(%rbx)
  4026a3:	89 ef                	mov    %ebp,%edi
  4026a5:	e8 36 e5 ff ff       	callq  400be0 <close@plt>
  4026aa:	b8 ff ff ff ff       	mov    $0xffffffff,%eax
  4026af:	e9 cb 00 00 00       	jmpq   40277f <submitr+0x727>
  4026b4:	8b 94 24 1c 20 00 00 	mov    0x201c(%rsp),%edx
  4026bb:	81 fa c8 00 00 00    	cmp    $0xc8,%edx
  4026c1:	74 28                	je     4026eb <submitr+0x693>
  4026c3:	48 8d 4c 24 10       	lea    0x10(%rsp),%rcx
  4026c8:	be 00 32 40 00       	mov    $0x403200,%esi
  4026cd:	48 89 df             	mov    %rbx,%rdi
  4026d0:	b8 00 00 00 00       	mov    $0x0,%eax
  4026d5:	e8 26 e6 ff ff       	callq  400d00 <sprintf@plt>
  4026da:	89 ef                	mov    %ebp,%edi
  4026dc:	e8 ff e4 ff ff       	callq  400be0 <close@plt>
  4026e1:	b8 ff ff ff ff       	mov    $0xffffffff,%eax
  4026e6:	e9 94 00 00 00       	jmpq   40277f <submitr+0x727>
  4026eb:	48 8d b4 24 20 60 00 	lea    0x6020(%rsp),%rsi
  4026f2:	00 
  4026f3:	48 89 df             	mov    %rbx,%rdi
  4026f6:	e8 75 e4 ff ff       	callq  400b70 <strcpy@plt>
  4026fb:	89 ef                	mov    %ebp,%edi
  4026fd:	e8 de e4 ff ff       	callq  400be0 <close@plt>
  402702:	0f b6 03             	movzbl (%rbx),%eax
  402705:	ba 4f 00 00 00       	mov    $0x4f,%edx
  40270a:	29 c2                	sub    %eax,%edx
  40270c:	75 22                	jne    402730 <submitr+0x6d8>
  40270e:	0f b6 4b 01          	movzbl 0x1(%rbx),%ecx
  402712:	b8 4b 00 00 00       	mov    $0x4b,%eax
  402717:	29 c8                	sub    %ecx,%eax
  402719:	75 17                	jne    402732 <submitr+0x6da>
  40271b:	0f b6 4b 02          	movzbl 0x2(%rbx),%ecx
  40271f:	b8 0a 00 00 00       	mov    $0xa,%eax
  402724:	29 c8                	sub    %ecx,%eax
  402726:	75 0a                	jne    402732 <submitr+0x6da>
  402728:	0f b6 43 03          	movzbl 0x3(%rbx),%eax
  40272c:	f7 d8                	neg    %eax
  40272e:	eb 02                	jmp    402732 <submitr+0x6da>
  402730:	89 d0                	mov    %edx,%eax
  402732:	85 c0                	test   %eax,%eax
  402734:	74 3d                	je     402773 <submitr+0x71b>
  402736:	bf 48 32 40 00       	mov    $0x403248,%edi
  40273b:	b9 05 00 00 00       	mov    $0x5,%ecx
  402740:	48 89 de             	mov    %rbx,%rsi
  402743:	f3 a6                	repz cmpsb %es:(%rdi),%ds:(%rsi)
  402745:	0f 97 c0             	seta   %al
  402748:	0f 92 c1             	setb   %cl
  40274b:	29 c8                	sub    %ecx,%eax
  40274d:	0f be c0             	movsbl %al,%eax
  402750:	85 c0                	test   %eax,%eax
  402752:	74 2b                	je     40277f <submitr+0x727>
  402754:	85 d2                	test   %edx,%edx
  402756:	75 10                	jne    402768 <submitr+0x710>
  402758:	0f b6 43 01          	movzbl 0x1(%rbx),%eax
  40275c:	b2 4b                	mov    $0x4b,%dl
  40275e:	29 c2                	sub    %eax,%edx
  402760:	75 06                	jne    402768 <submitr+0x710>
  402762:	0f b6 53 02          	movzbl 0x2(%rbx),%edx
  402766:	f7 da                	neg    %edx
  402768:	85 d2                	test   %edx,%edx
  40276a:	75 0e                	jne    40277a <submitr+0x722>
  40276c:	b8 00 00 00 00       	mov    $0x0,%eax
  402771:	eb 0c                	jmp    40277f <submitr+0x727>
  402773:	b8 00 00 00 00       	mov    $0x0,%eax
  402778:	eb 05                	jmp    40277f <submitr+0x727>
  40277a:	b8 ff ff ff ff       	mov    $0xffffffff,%eax
  40277f:	48 81 c4 48 a0 00 00 	add    $0xa048,%rsp
  402786:	5b                   	pop    %rbx
  402787:	5d                   	pop    %rbp
  402788:	41 5c                	pop    %r12
  40278a:	41 5d                	pop    %r13
  40278c:	41 5e                	pop    %r14
  40278e:	41 5f                	pop    %r15
  402790:	c3                   	retq   

0000000000402791 <init_timeout>:
  402791:	53                   	push   %rbx
  402792:	89 fb                	mov    %edi,%ebx
  402794:	85 ff                	test   %edi,%edi
  402796:	74 1f                	je     4027b7 <init_timeout+0x26>
  402798:	85 ff                	test   %edi,%edi
  40279a:	79 05                	jns    4027a1 <init_timeout+0x10>
  40279c:	bb 00 00 00 00       	mov    $0x0,%ebx
  4027a1:	be ed 1d 40 00       	mov    $0x401ded,%esi
  4027a6:	bf 0e 00 00 00       	mov    $0xe,%edi
  4027ab:	e8 60 e4 ff ff       	callq  400c10 <signal@plt>
  4027b0:	89 df                	mov    %ebx,%edi
  4027b2:	e8 19 e4 ff ff       	callq  400bd0 <alarm@plt>
  4027b7:	5b                   	pop    %rbx
  4027b8:	c3                   	retq   

00000000004027b9 <init_driver>:
  4027b9:	55                   	push   %rbp
  4027ba:	53                   	push   %rbx
  4027bb:	48 83 ec 18          	sub    $0x18,%rsp
  4027bf:	48 89 fd             	mov    %rdi,%rbp
  4027c2:	be 01 00 00 00       	mov    $0x1,%esi
  4027c7:	bf 0d 00 00 00       	mov    $0xd,%edi
  4027cc:	e8 3f e4 ff ff       	callq  400c10 <signal@plt>
  4027d1:	be 01 00 00 00       	mov    $0x1,%esi
  4027d6:	bf 1d 00 00 00       	mov    $0x1d,%edi
  4027db:	e8 30 e4 ff ff       	callq  400c10 <signal@plt>
  4027e0:	be 01 00 00 00       	mov    $0x1,%esi
  4027e5:	bf 1d 00 00 00       	mov    $0x1d,%edi
  4027ea:	e8 21 e4 ff ff       	callq  400c10 <signal@plt>
  4027ef:	ba 00 00 00 00       	mov    $0x0,%edx
  4027f4:	be 01 00 00 00       	mov    $0x1,%esi
  4027f9:	bf 02 00 00 00       	mov    $0x2,%edi
  4027fe:	e8 2d e5 ff ff       	callq  400d30 <socket@plt>
  402803:	89 c3                	mov    %eax,%ebx
  402805:	85 c0                	test   %eax,%eax
  402807:	79 4f                	jns    402858 <init_driver+0x9f>
  402809:	48 b8 45 72 72 6f 72 	movabs $0x43203a726f727245,%rax
  402810:	3a 20 43 
  402813:	48 89 45 00          	mov    %rax,0x0(%rbp)
  402817:	48 b8 6c 69 65 6e 74 	movabs $0x6e7520746e65696c,%rax
  40281e:	20 75 6e 
  402821:	48 89 45 08          	mov    %rax,0x8(%rbp)
  402825:	48 b8 61 62 6c 65 20 	movabs $0x206f7420656c6261,%rax
  40282c:	74 6f 20 
  40282f:	48 89 45 10          	mov    %rax,0x10(%rbp)
  402833:	48 b8 63 72 65 61 74 	movabs $0x7320657461657263,%rax
  40283a:	65 20 73 
  40283d:	48 89 45 18          	mov    %rax,0x18(%rbp)
  402841:	c7 45 20 6f 63 6b 65 	movl   $0x656b636f,0x20(%rbp)
  402848:	66 c7 45 24 74 00    	movw   $0x74,0x24(%rbp)
  40284e:	b8 ff ff ff ff       	mov    $0xffffffff,%eax
  402853:	e9 23 01 00 00       	jmpq   40297b <init_driver+0x1c2>
  402858:	bf 4d 32 40 00       	mov    $0x40324d,%edi
  40285d:	e8 be e3 ff ff       	callq  400c20 <gethostbyname@plt>
  402862:	48 85 c0             	test   %rax,%rax
  402865:	75 68                	jne    4028cf <init_driver+0x116>
  402867:	48 b8 45 72 72 6f 72 	movabs $0x44203a726f727245,%rax
  40286e:	3a 20 44 
  402871:	48 89 45 00          	mov    %rax,0x0(%rbp)
  402875:	48 b8 4e 53 20 69 73 	movabs $0x6e7520736920534e,%rax
  40287c:	20 75 6e 
  40287f:	48 89 45 08          	mov    %rax,0x8(%rbp)
  402883:	48 b8 61 62 6c 65 20 	movabs $0x206f7420656c6261,%rax
  40288a:	74 6f 20 
  40288d:	48 89 45 10          	mov    %rax,0x10(%rbp)
  402891:	48 b8 72 65 73 6f 6c 	movabs $0x2065766c6f736572,%rax
  402898:	76 65 20 
  40289b:	48 89 45 18          	mov    %rax,0x18(%rbp)
  40289f:	48 b8 73 65 72 76 65 	movabs $0x6120726576726573,%rax
  4028a6:	72 20 61 
  4028a9:	48 89 45 20          	mov    %rax,0x20(%rbp)
  4028ad:	c7 45 28 64 64 72 65 	movl   $0x65726464,0x28(%rbp)
  4028b4:	66 c7 45 2c 73 73    	movw   $0x7373,0x2c(%rbp)
  4028ba:	c6 45 2e 00          	movb   $0x0,0x2e(%rbp)
  4028be:	89 df                	mov    %ebx,%edi
  4028c0:	e8 1b e3 ff ff       	callq  400be0 <close@plt>
  4028c5:	b8 ff ff ff ff       	mov    $0xffffffff,%eax
  4028ca:	e9 ac 00 00 00       	jmpq   40297b <init_driver+0x1c2>
  4028cf:	48 c7 04 24 00 00 00 	movq   $0x0,(%rsp)
  4028d6:	00 
  4028d7:	48 c7 44 24 08 00 00 	movq   $0x0,0x8(%rsp)
  4028de:	00 00 
  4028e0:	66 c7 04 24 02 00    	movw   $0x2,(%rsp)
  4028e6:	48 8b 48 18          	mov    0x18(%rax),%rcx
  4028ea:	48 63 50 14          	movslq 0x14(%rax),%rdx
  4028ee:	48 8d 74 24 04       	lea    0x4(%rsp),%rsi
  4028f3:	48 8b 39             	mov    (%rcx),%rdi
  4028f6:	e8 c5 e3 ff ff       	callq  400cc0 <bcopy@plt>
  4028fb:	66 c7 44 24 02 00 50 	movw   $0x5000,0x2(%rsp)
  402902:	ba 10 00 00 00       	mov    $0x10,%edx
  402907:	48 89 e6             	mov    %rsp,%rsi
  40290a:	89 df                	mov    %ebx,%edi
  40290c:	e8 0f e4 ff ff       	callq  400d20 <connect@plt>
  402911:	85 c0                	test   %eax,%eax
  402913:	79 50                	jns    402965 <init_driver+0x1ac>
  402915:	48 b8 45 72 72 6f 72 	movabs $0x55203a726f727245,%rax
  40291c:	3a 20 55 
  40291f:	48 89 45 00          	mov    %rax,0x0(%rbp)
  402923:	48 b8 6e 61 62 6c 65 	movabs $0x6f7420656c62616e,%rax
  40292a:	20 74 6f 
  40292d:	48 89 45 08          	mov    %rax,0x8(%rbp)
  402931:	48 b8 20 63 6f 6e 6e 	movabs $0x7463656e6e6f6320,%rax
  402938:	65 63 74 
  40293b:	48 89 45 10          	mov    %rax,0x10(%rbp)
  40293f:	48 b8 20 74 6f 20 73 	movabs $0x76726573206f7420,%rax
  402946:	65 72 76 
  402949:	48 89 45 18          	mov    %rax,0x18(%rbp)
  40294d:	66 c7 45 20 65 72    	movw   $0x7265,0x20(%rbp)
  402953:	c6 45 22 00          	movb   $0x0,0x22(%rbp)
  402957:	89 df                	mov    %ebx,%edi
  402959:	e8 82 e2 ff ff       	callq  400be0 <close@plt>
  40295e:	b8 ff ff ff ff       	mov    $0xffffffff,%eax
  402963:	eb 16                	jmp    40297b <init_driver+0x1c2>
  402965:	89 df                	mov    %ebx,%edi
  402967:	e8 74 e2 ff ff       	callq  400be0 <close@plt>
  40296c:	66 c7 45 00 4f 4b    	movw   $0x4b4f,0x0(%rbp)
  402972:	c6 45 02 00          	movb   $0x0,0x2(%rbp)
  402976:	b8 00 00 00 00       	mov    $0x0,%eax
  40297b:	48 83 c4 18          	add    $0x18,%rsp
  40297f:	5b                   	pop    %rbx
  402980:	5d                   	pop    %rbp
  402981:	c3                   	retq   

0000000000402982 <driver_post>:
  402982:	53                   	push   %rbx
  402983:	4c 89 cb             	mov    %r9,%rbx
  402986:	45 85 c0             	test   %r8d,%r8d
  402989:	74 22                	je     4029ad <driver_post+0x2b>
  40298b:	48 89 ce             	mov    %rcx,%rsi
  40298e:	bf 5f 32 40 00       	mov    $0x40325f,%edi
  402993:	b8 00 00 00 00       	mov    $0x0,%eax
  402998:	e8 13 e2 ff ff       	callq  400bb0 <printf@plt>
  40299d:	66 c7 03 4f 4b       	movw   $0x4b4f,(%rbx)
  4029a2:	c6 43 02 00          	movb   $0x0,0x2(%rbx)
  4029a6:	b8 00 00 00 00       	mov    $0x0,%eax
  4029ab:	eb 3f                	jmp    4029ec <driver_post+0x6a>
  4029ad:	48 85 ff             	test   %rdi,%rdi
  4029b0:	74 2c                	je     4029de <driver_post+0x5c>
  4029b2:	80 3f 00             	cmpb   $0x0,(%rdi)
  4029b5:	74 27                	je     4029de <driver_post+0x5c>
  4029b7:	48 83 ec 08          	sub    $0x8,%rsp
  4029bb:	41 51                	push   %r9
  4029bd:	49 89 c9             	mov    %rcx,%r9
  4029c0:	49 89 d0             	mov    %rdx,%r8
  4029c3:	48 89 f9             	mov    %rdi,%rcx
  4029c6:	48 89 f2             	mov    %rsi,%rdx
  4029c9:	be 9a 3c 00 00       	mov    $0x3c9a,%esi
  4029ce:	bf 4d 32 40 00       	mov    $0x40324d,%edi
  4029d3:	e8 80 f6 ff ff       	callq  402058 <submitr>
  4029d8:	48 83 c4 10          	add    $0x10,%rsp
  4029dc:	eb 0e                	jmp    4029ec <driver_post+0x6a>
  4029de:	66 c7 03 4f 4b       	movw   $0x4b4f,(%rbx)
  4029e3:	c6 43 02 00          	movb   $0x0,0x2(%rbx)
  4029e7:	b8 00 00 00 00       	mov    $0x0,%eax
  4029ec:	5b                   	pop    %rbx
  4029ed:	c3                   	retq   

00000000004029ee <check>:
  4029ee:	89 f8                	mov    %edi,%eax
  4029f0:	c1 e8 1c             	shr    $0x1c,%eax
  4029f3:	85 c0                	test   %eax,%eax
  4029f5:	74 1d                	je     402a14 <check+0x26>
  4029f7:	b9 00 00 00 00       	mov    $0x0,%ecx
  4029fc:	eb 0b                	jmp    402a09 <check+0x1b>
  4029fe:	89 f8                	mov    %edi,%eax
  402a00:	d3 e8                	shr    %cl,%eax
  402a02:	3c 0a                	cmp    $0xa,%al
  402a04:	74 14                	je     402a1a <check+0x2c>
  402a06:	83 c1 08             	add    $0x8,%ecx
  402a09:	83 f9 1f             	cmp    $0x1f,%ecx
  402a0c:	7e f0                	jle    4029fe <check+0x10>
  402a0e:	b8 01 00 00 00       	mov    $0x1,%eax
  402a13:	c3                   	retq   
  402a14:	b8 00 00 00 00       	mov    $0x0,%eax
  402a19:	c3                   	retq   
  402a1a:	b8 00 00 00 00       	mov    $0x0,%eax
  402a1f:	c3                   	retq   

0000000000402a20 <gencookie>:
  402a20:	53                   	push   %rbx
  402a21:	83 c7 01             	add    $0x1,%edi
  402a24:	e8 27 e1 ff ff       	callq  400b50 <srandom@plt>
  402a29:	e8 52 e2 ff ff       	callq  400c80 <random@plt>
  402a2e:	89 c3                	mov    %eax,%ebx
  402a30:	89 c7                	mov    %eax,%edi
  402a32:	e8 b7 ff ff ff       	callq  4029ee <check>
  402a37:	85 c0                	test   %eax,%eax
  402a39:	74 ee                	je     402a29 <gencookie+0x9>
  402a3b:	89 d8                	mov    %ebx,%eax
  402a3d:	5b                   	pop    %rbx
  402a3e:	c3                   	retq   
  402a3f:	90                   	nop

0000000000402a40 <__libc_csu_init>:
  402a40:	41 57                	push   %r15
  402a42:	41 89 ff             	mov    %edi,%r15d
  402a45:	41 56                	push   %r14
  402a47:	49 89 f6             	mov    %rsi,%r14
  402a4a:	41 55                	push   %r13
  402a4c:	49 89 d5             	mov    %rdx,%r13
  402a4f:	41 54                	push   %r12
  402a51:	4c 8d 25 28 0f 20 00 	lea    0x200f28(%rip),%r12        # 603980 <__frame_dummy_init_array_entry>
  402a58:	55                   	push   %rbp
  402a59:	48 8d 2d 28 0f 20 00 	lea    0x200f28(%rip),%rbp        # 603988 <__init_array_end>
  402a60:	53                   	push   %rbx
  402a61:	4c 29 e5             	sub    %r12,%rbp
  402a64:	31 db                	xor    %ebx,%ebx
  402a66:	48 c1 fd 03          	sar    $0x3,%rbp
  402a6a:	48 83 ec 08          	sub    $0x8,%rsp
  402a6e:	e8 9d e0 ff ff       	callq  400b10 <_init>
  402a73:	48 85 ed             	test   %rbp,%rbp
  402a76:	74 1e                	je     402a96 <__libc_csu_init+0x56>
  402a78:	0f 1f 84 00 00 00 00 	nopl   0x0(%rax,%rax,1)
  402a7f:	00 
  402a80:	4c 89 ea             	mov    %r13,%rdx
  402a83:	4c 89 f6             	mov    %r14,%rsi
  402a86:	44 89 ff             	mov    %r15d,%edi
  402a89:	41 ff 14 dc          	callq  *(%r12,%rbx,8)
  402a8d:	48 83 c3 01          	add    $0x1,%rbx
  402a91:	48 39 eb             	cmp    %rbp,%rbx
  402a94:	75 ea                	jne    402a80 <__libc_csu_init+0x40>
  402a96:	48 83 c4 08          	add    $0x8,%rsp
  402a9a:	5b                   	pop    %rbx
  402a9b:	5d                   	pop    %rbp
  402a9c:	41 5c                	pop    %r12
  402a9e:	41 5d                	pop    %r13
  402aa0:	41 5e                	pop    %r14
  402aa2:	41 5f                	pop    %r15
  402aa4:	c3                   	retq   
  402aa5:	66 66 2e 0f 1f 84 00 	data16 nopw %cs:0x0(%rax,%rax,1)
  402aac:	00 00 00 00 

0000000000402ab0 <__libc_csu_fini>:
  402ab0:	f3 c3                	repz retq 

Disassembly of section .fini:

0000000000402ab4 <_fini>:
  402ab4:	48 83 ec 08          	sub    $0x8,%rsp
  402ab8:	48 83 c4 08          	add    $0x8,%rsp
  402abc:	c3                   	retq   
