
rtarget:     file format elf64-x86-64


Disassembly of section .init:

0000000000400b10 <_init>:
  400b10:	48 83 ec 08          	sub    $0x8,%rsp
  400b14:	48 8b 05 ed 36 20 00 	mov    0x2036ed(%rip),%rax        # 604208 <_DYNAMIC+0x1d0>
  400b1b:	48 85 c0             	test   %rax,%rax
  400b1e:	74 05                	je     400b25 <_init+0x15>
  400b20:	e8 1b 01 00 00       	callq  400c40 <__gmon_start__@plt>
  400b25:	48 83 c4 08          	add    $0x8,%rsp
  400b29:	c3                   	retq   

Disassembly of section .plt:

0000000000400b30 <__errno_location@plt-0x10>:
  400b30:	ff 35 e2 36 20 00    	pushq  0x2036e2(%rip)        # 604218 <_GLOBAL_OFFSET_TABLE_+0x8>
  400b36:	ff 25 e4 36 20 00    	jmpq   *0x2036e4(%rip)        # 604220 <_GLOBAL_OFFSET_TABLE_+0x10>
  400b3c:	0f 1f 40 00          	nopl   0x0(%rax)

0000000000400b40 <__errno_location@plt>:
  400b40:	ff 25 e2 36 20 00    	jmpq   *0x2036e2(%rip)        # 604228 <_GLOBAL_OFFSET_TABLE_+0x18>
  400b46:	68 00 00 00 00       	pushq  $0x0
  400b4b:	e9 e0 ff ff ff       	jmpq   400b30 <_init+0x20>

0000000000400b50 <srandom@plt>:
  400b50:	ff 25 da 36 20 00    	jmpq   *0x2036da(%rip)        # 604230 <_GLOBAL_OFFSET_TABLE_+0x20>
  400b56:	68 01 00 00 00       	pushq  $0x1
  400b5b:	e9 d0 ff ff ff       	jmpq   400b30 <_init+0x20>

0000000000400b60 <strncmp@plt>:
  400b60:	ff 25 d2 36 20 00    	jmpq   *0x2036d2(%rip)        # 604238 <_GLOBAL_OFFSET_TABLE_+0x28>
  400b66:	68 02 00 00 00       	pushq  $0x2
  400b6b:	e9 c0 ff ff ff       	jmpq   400b30 <_init+0x20>

0000000000400b70 <strcpy@plt>:
  400b70:	ff 25 ca 36 20 00    	jmpq   *0x2036ca(%rip)        # 604240 <_GLOBAL_OFFSET_TABLE_+0x30>
  400b76:	68 03 00 00 00       	pushq  $0x3
  400b7b:	e9 b0 ff ff ff       	jmpq   400b30 <_init+0x20>

0000000000400b80 <puts@plt>:
  400b80:	ff 25 c2 36 20 00    	jmpq   *0x2036c2(%rip)        # 604248 <_GLOBAL_OFFSET_TABLE_+0x38>
  400b86:	68 04 00 00 00       	pushq  $0x4
  400b8b:	e9 a0 ff ff ff       	jmpq   400b30 <_init+0x20>

0000000000400b90 <write@plt>:
  400b90:	ff 25 ba 36 20 00    	jmpq   *0x2036ba(%rip)        # 604250 <_GLOBAL_OFFSET_TABLE_+0x40>
  400b96:	68 05 00 00 00       	pushq  $0x5
  400b9b:	e9 90 ff ff ff       	jmpq   400b30 <_init+0x20>

0000000000400ba0 <mmap@plt>:
  400ba0:	ff 25 b2 36 20 00    	jmpq   *0x2036b2(%rip)        # 604258 <_GLOBAL_OFFSET_TABLE_+0x48>
  400ba6:	68 06 00 00 00       	pushq  $0x6
  400bab:	e9 80 ff ff ff       	jmpq   400b30 <_init+0x20>

0000000000400bb0 <printf@plt>:
  400bb0:	ff 25 aa 36 20 00    	jmpq   *0x2036aa(%rip)        # 604260 <_GLOBAL_OFFSET_TABLE_+0x50>
  400bb6:	68 07 00 00 00       	pushq  $0x7
  400bbb:	e9 70 ff ff ff       	jmpq   400b30 <_init+0x20>

0000000000400bc0 <memset@plt>:
  400bc0:	ff 25 a2 36 20 00    	jmpq   *0x2036a2(%rip)        # 604268 <_GLOBAL_OFFSET_TABLE_+0x58>
  400bc6:	68 08 00 00 00       	pushq  $0x8
  400bcb:	e9 60 ff ff ff       	jmpq   400b30 <_init+0x20>

0000000000400bd0 <alarm@plt>:
  400bd0:	ff 25 9a 36 20 00    	jmpq   *0x20369a(%rip)        # 604270 <_GLOBAL_OFFSET_TABLE_+0x60>
  400bd6:	68 09 00 00 00       	pushq  $0x9
  400bdb:	e9 50 ff ff ff       	jmpq   400b30 <_init+0x20>

0000000000400be0 <close@plt>:
  400be0:	ff 25 92 36 20 00    	jmpq   *0x203692(%rip)        # 604278 <_GLOBAL_OFFSET_TABLE_+0x68>
  400be6:	68 0a 00 00 00       	pushq  $0xa
  400beb:	e9 40 ff ff ff       	jmpq   400b30 <_init+0x20>

0000000000400bf0 <read@plt>:
  400bf0:	ff 25 8a 36 20 00    	jmpq   *0x20368a(%rip)        # 604280 <_GLOBAL_OFFSET_TABLE_+0x70>
  400bf6:	68 0b 00 00 00       	pushq  $0xb
  400bfb:	e9 30 ff ff ff       	jmpq   400b30 <_init+0x20>

0000000000400c00 <__libc_start_main@plt>:
  400c00:	ff 25 82 36 20 00    	jmpq   *0x203682(%rip)        # 604288 <_GLOBAL_OFFSET_TABLE_+0x78>
  400c06:	68 0c 00 00 00       	pushq  $0xc
  400c0b:	e9 20 ff ff ff       	jmpq   400b30 <_init+0x20>

0000000000400c10 <signal@plt>:
  400c10:	ff 25 7a 36 20 00    	jmpq   *0x20367a(%rip)        # 604290 <_GLOBAL_OFFSET_TABLE_+0x80>
  400c16:	68 0d 00 00 00       	pushq  $0xd
  400c1b:	e9 10 ff ff ff       	jmpq   400b30 <_init+0x20>

0000000000400c20 <gethostbyname@plt>:
  400c20:	ff 25 72 36 20 00    	jmpq   *0x203672(%rip)        # 604298 <_GLOBAL_OFFSET_TABLE_+0x88>
  400c26:	68 0e 00 00 00       	pushq  $0xe
  400c2b:	e9 00 ff ff ff       	jmpq   400b30 <_init+0x20>

0000000000400c30 <fprintf@plt>:
  400c30:	ff 25 6a 36 20 00    	jmpq   *0x20366a(%rip)        # 6042a0 <_GLOBAL_OFFSET_TABLE_+0x90>
  400c36:	68 0f 00 00 00       	pushq  $0xf
  400c3b:	e9 f0 fe ff ff       	jmpq   400b30 <_init+0x20>

0000000000400c40 <__gmon_start__@plt>:
  400c40:	ff 25 62 36 20 00    	jmpq   *0x203662(%rip)        # 6042a8 <_GLOBAL_OFFSET_TABLE_+0x98>
  400c46:	68 10 00 00 00       	pushq  $0x10
  400c4b:	e9 e0 fe ff ff       	jmpq   400b30 <_init+0x20>

0000000000400c50 <strtol@plt>:
  400c50:	ff 25 5a 36 20 00    	jmpq   *0x20365a(%rip)        # 6042b0 <_GLOBAL_OFFSET_TABLE_+0xa0>
  400c56:	68 11 00 00 00       	pushq  $0x11
  400c5b:	e9 d0 fe ff ff       	jmpq   400b30 <_init+0x20>

0000000000400c60 <memcpy@plt>:
  400c60:	ff 25 52 36 20 00    	jmpq   *0x203652(%rip)        # 6042b8 <_GLOBAL_OFFSET_TABLE_+0xa8>
  400c66:	68 12 00 00 00       	pushq  $0x12
  400c6b:	e9 c0 fe ff ff       	jmpq   400b30 <_init+0x20>

0000000000400c70 <time@plt>:
  400c70:	ff 25 4a 36 20 00    	jmpq   *0x20364a(%rip)        # 6042c0 <_GLOBAL_OFFSET_TABLE_+0xb0>
  400c76:	68 13 00 00 00       	pushq  $0x13
  400c7b:	e9 b0 fe ff ff       	jmpq   400b30 <_init+0x20>

0000000000400c80 <random@plt>:
  400c80:	ff 25 42 36 20 00    	jmpq   *0x203642(%rip)        # 6042c8 <_GLOBAL_OFFSET_TABLE_+0xb8>
  400c86:	68 14 00 00 00       	pushq  $0x14
  400c8b:	e9 a0 fe ff ff       	jmpq   400b30 <_init+0x20>

0000000000400c90 <_IO_getc@plt>:
  400c90:	ff 25 3a 36 20 00    	jmpq   *0x20363a(%rip)        # 6042d0 <_GLOBAL_OFFSET_TABLE_+0xc0>
  400c96:	68 15 00 00 00       	pushq  $0x15
  400c9b:	e9 90 fe ff ff       	jmpq   400b30 <_init+0x20>

0000000000400ca0 <__isoc99_sscanf@plt>:
  400ca0:	ff 25 32 36 20 00    	jmpq   *0x203632(%rip)        # 6042d8 <_GLOBAL_OFFSET_TABLE_+0xc8>
  400ca6:	68 16 00 00 00       	pushq  $0x16
  400cab:	e9 80 fe ff ff       	jmpq   400b30 <_init+0x20>

0000000000400cb0 <munmap@plt>:
  400cb0:	ff 25 2a 36 20 00    	jmpq   *0x20362a(%rip)        # 6042e0 <_GLOBAL_OFFSET_TABLE_+0xd0>
  400cb6:	68 17 00 00 00       	pushq  $0x17
  400cbb:	e9 70 fe ff ff       	jmpq   400b30 <_init+0x20>

0000000000400cc0 <bcopy@plt>:
  400cc0:	ff 25 22 36 20 00    	jmpq   *0x203622(%rip)        # 6042e8 <_GLOBAL_OFFSET_TABLE_+0xd8>
  400cc6:	68 18 00 00 00       	pushq  $0x18
  400ccb:	e9 60 fe ff ff       	jmpq   400b30 <_init+0x20>

0000000000400cd0 <fopen@plt>:
  400cd0:	ff 25 1a 36 20 00    	jmpq   *0x20361a(%rip)        # 6042f0 <_GLOBAL_OFFSET_TABLE_+0xe0>
  400cd6:	68 19 00 00 00       	pushq  $0x19
  400cdb:	e9 50 fe ff ff       	jmpq   400b30 <_init+0x20>

0000000000400ce0 <getopt@plt>:
  400ce0:	ff 25 12 36 20 00    	jmpq   *0x203612(%rip)        # 6042f8 <_GLOBAL_OFFSET_TABLE_+0xe8>
  400ce6:	68 1a 00 00 00       	pushq  $0x1a
  400ceb:	e9 40 fe ff ff       	jmpq   400b30 <_init+0x20>

0000000000400cf0 <strtoul@plt>:
  400cf0:	ff 25 0a 36 20 00    	jmpq   *0x20360a(%rip)        # 604300 <_GLOBAL_OFFSET_TABLE_+0xf0>
  400cf6:	68 1b 00 00 00       	pushq  $0x1b
  400cfb:	e9 30 fe ff ff       	jmpq   400b30 <_init+0x20>

0000000000400d00 <sprintf@plt>:
  400d00:	ff 25 02 36 20 00    	jmpq   *0x203602(%rip)        # 604308 <_GLOBAL_OFFSET_TABLE_+0xf8>
  400d06:	68 1c 00 00 00       	pushq  $0x1c
  400d0b:	e9 20 fe ff ff       	jmpq   400b30 <_init+0x20>

0000000000400d10 <exit@plt>:
  400d10:	ff 25 fa 35 20 00    	jmpq   *0x2035fa(%rip)        # 604310 <_GLOBAL_OFFSET_TABLE_+0x100>
  400d16:	68 1d 00 00 00       	pushq  $0x1d
  400d1b:	e9 10 fe ff ff       	jmpq   400b30 <_init+0x20>

0000000000400d20 <connect@plt>:
  400d20:	ff 25 f2 35 20 00    	jmpq   *0x2035f2(%rip)        # 604318 <_GLOBAL_OFFSET_TABLE_+0x108>
  400d26:	68 1e 00 00 00       	pushq  $0x1e
  400d2b:	e9 00 fe ff ff       	jmpq   400b30 <_init+0x20>

0000000000400d30 <socket@plt>:
  400d30:	ff 25 ea 35 20 00    	jmpq   *0x2035ea(%rip)        # 604320 <_GLOBAL_OFFSET_TABLE_+0x110>
  400d36:	68 1f 00 00 00       	pushq  $0x1f
  400d3b:	e9 f0 fd ff ff       	jmpq   400b30 <_init+0x20>

Disassembly of section .text:

0000000000400d40 <_start>:
  400d40:	31 ed                	xor    %ebp,%ebp
  400d42:	49 89 d1             	mov    %rdx,%r9
  400d45:	5e                   	pop    %rsi
  400d46:	48 89 e2             	mov    %rsp,%rdx
  400d49:	48 83 e4 f0          	and    $0xfffffffffffffff0,%rsp
  400d4d:	50                   	push   %rax
  400d4e:	54                   	push   %rsp
  400d4f:	49 c7 c0 d0 2b 40 00 	mov    $0x402bd0,%r8
  400d56:	48 c7 c1 60 2b 40 00 	mov    $0x402b60,%rcx
  400d5d:	48 c7 c7 85 0f 40 00 	mov    $0x400f85,%rdi
  400d64:	e8 97 fe ff ff       	callq  400c00 <__libc_start_main@plt>
  400d69:	f4                   	hlt    
  400d6a:	66 0f 1f 44 00 00    	nopw   0x0(%rax,%rax,1)

0000000000400d70 <deregister_tm_clones>:
  400d70:	b8 f7 46 60 00       	mov    $0x6046f7,%eax
  400d75:	55                   	push   %rbp
  400d76:	48 2d f0 46 60 00    	sub    $0x6046f0,%rax
  400d7c:	48 83 f8 0e          	cmp    $0xe,%rax
  400d80:	48 89 e5             	mov    %rsp,%rbp
  400d83:	76 1b                	jbe    400da0 <deregister_tm_clones+0x30>
  400d85:	b8 00 00 00 00       	mov    $0x0,%eax
  400d8a:	48 85 c0             	test   %rax,%rax
  400d8d:	74 11                	je     400da0 <deregister_tm_clones+0x30>
  400d8f:	5d                   	pop    %rbp
  400d90:	bf f0 46 60 00       	mov    $0x6046f0,%edi
  400d95:	ff e0                	jmpq   *%rax
  400d97:	66 0f 1f 84 00 00 00 	nopw   0x0(%rax,%rax,1)
  400d9e:	00 00 
  400da0:	5d                   	pop    %rbp
  400da1:	c3                   	retq   
  400da2:	66 66 66 66 66 2e 0f 	data16 data16 data16 data16 nopw %cs:0x0(%rax,%rax,1)
  400da9:	1f 84 00 00 00 00 00 

0000000000400db0 <register_tm_clones>:
  400db0:	be f0 46 60 00       	mov    $0x6046f0,%esi
  400db5:	55                   	push   %rbp
  400db6:	48 81 ee f0 46 60 00 	sub    $0x6046f0,%rsi
  400dbd:	48 c1 fe 03          	sar    $0x3,%rsi
  400dc1:	48 89 e5             	mov    %rsp,%rbp
  400dc4:	48 89 f0             	mov    %rsi,%rax
  400dc7:	48 c1 e8 3f          	shr    $0x3f,%rax
  400dcb:	48 01 c6             	add    %rax,%rsi
  400dce:	48 d1 fe             	sar    %rsi
  400dd1:	74 15                	je     400de8 <register_tm_clones+0x38>
  400dd3:	b8 00 00 00 00       	mov    $0x0,%eax
  400dd8:	48 85 c0             	test   %rax,%rax
  400ddb:	74 0b                	je     400de8 <register_tm_clones+0x38>
  400ddd:	5d                   	pop    %rbp
  400dde:	bf f0 46 60 00       	mov    $0x6046f0,%edi
  400de3:	ff e0                	jmpq   *%rax
  400de5:	0f 1f 00             	nopl   (%rax)
  400de8:	5d                   	pop    %rbp
  400de9:	c3                   	retq   
  400dea:	66 0f 1f 44 00 00    	nopw   0x0(%rax,%rax,1)

0000000000400df0 <__do_global_dtors_aux>:
  400df0:	80 3d 21 39 20 00 00 	cmpb   $0x0,0x203921(%rip)        # 604718 <completed.6661>
  400df7:	75 11                	jne    400e0a <__do_global_dtors_aux+0x1a>
  400df9:	55                   	push   %rbp
  400dfa:	48 89 e5             	mov    %rsp,%rbp
  400dfd:	e8 6e ff ff ff       	callq  400d70 <deregister_tm_clones>
  400e02:	5d                   	pop    %rbp
  400e03:	c6 05 0e 39 20 00 01 	movb   $0x1,0x20390e(%rip)        # 604718 <completed.6661>
  400e0a:	f3 c3                	repz retq 
  400e0c:	0f 1f 40 00          	nopl   0x0(%rax)

0000000000400e10 <frame_dummy>:
  400e10:	bf 30 40 60 00       	mov    $0x604030,%edi
  400e15:	48 83 3f 00          	cmpq   $0x0,(%rdi)
  400e19:	75 05                	jne    400e20 <frame_dummy+0x10>
  400e1b:	eb 93                	jmp    400db0 <register_tm_clones>
  400e1d:	0f 1f 00             	nopl   (%rax)
  400e20:	b8 00 00 00 00       	mov    $0x0,%eax
  400e25:	48 85 c0             	test   %rax,%rax
  400e28:	74 f1                	je     400e1b <frame_dummy+0xb>
  400e2a:	55                   	push   %rbp
  400e2b:	48 89 e5             	mov    %rsp,%rbp
  400e2e:	ff d0                	callq  *%rax
  400e30:	5d                   	pop    %rbp
  400e31:	e9 7a ff ff ff       	jmpq   400db0 <register_tm_clones>

0000000000400e36 <usage>:
  400e36:	48 83 ec 08          	sub    $0x8,%rsp
  400e3a:	48 89 fe             	mov    %rdi,%rsi
  400e3d:	83 3d 24 39 20 00 00 	cmpl   $0x0,0x203924(%rip)        # 604768 <is_checker>
  400e44:	74 39                	je     400e7f <usage+0x49>
  400e46:	bf e8 2b 40 00       	mov    $0x402be8,%edi
  400e4b:	b8 00 00 00 00       	mov    $0x0,%eax
  400e50:	e8 5b fd ff ff       	callq  400bb0 <printf@plt>
  400e55:	bf 20 2c 40 00       	mov    $0x402c20,%edi
  400e5a:	e8 21 fd ff ff       	callq  400b80 <puts@plt>
  400e5f:	bf 20 2d 40 00       	mov    $0x402d20,%edi
  400e64:	e8 17 fd ff ff       	callq  400b80 <puts@plt>
  400e69:	bf 48 2c 40 00       	mov    $0x402c48,%edi
  400e6e:	e8 0d fd ff ff       	callq  400b80 <puts@plt>
  400e73:	bf 3a 2d 40 00       	mov    $0x402d3a,%edi
  400e78:	e8 03 fd ff ff       	callq  400b80 <puts@plt>
  400e7d:	eb 2d                	jmp    400eac <usage+0x76>
  400e7f:	bf 56 2d 40 00       	mov    $0x402d56,%edi
  400e84:	b8 00 00 00 00       	mov    $0x0,%eax
  400e89:	e8 22 fd ff ff       	callq  400bb0 <printf@plt>
  400e8e:	bf 70 2c 40 00       	mov    $0x402c70,%edi
  400e93:	e8 e8 fc ff ff       	callq  400b80 <puts@plt>
  400e98:	bf 98 2c 40 00       	mov    $0x402c98,%edi
  400e9d:	e8 de fc ff ff       	callq  400b80 <puts@plt>
  400ea2:	bf 74 2d 40 00       	mov    $0x402d74,%edi
  400ea7:	e8 d4 fc ff ff       	callq  400b80 <puts@plt>
  400eac:	bf 00 00 00 00       	mov    $0x0,%edi
  400eb1:	e8 5a fe ff ff       	callq  400d10 <exit@plt>

0000000000400eb6 <initialize_target>:
  400eb6:	55                   	push   %rbp
  400eb7:	53                   	push   %rbx
  400eb8:	48 81 ec 08 20 00 00 	sub    $0x2008,%rsp
  400ebf:	89 f5                	mov    %esi,%ebp
  400ec1:	89 3d 91 38 20 00    	mov    %edi,0x203891(%rip)        # 604758 <check_level>
  400ec7:	8b 3d bb 34 20 00    	mov    0x2034bb(%rip),%edi        # 604388 <target_id>
  400ecd:	e8 6c 1c 00 00       	callq  402b3e <gencookie>
  400ed2:	89 05 8c 38 20 00    	mov    %eax,0x20388c(%rip)        # 604764 <cookie>
  400ed8:	89 c7                	mov    %eax,%edi
  400eda:	e8 5f 1c 00 00       	callq  402b3e <gencookie>
  400edf:	89 05 7b 38 20 00    	mov    %eax,0x20387b(%rip)        # 604760 <authkey>
  400ee5:	8b 05 9d 34 20 00    	mov    0x20349d(%rip),%eax        # 604388 <target_id>
  400eeb:	8d 78 01             	lea    0x1(%rax),%edi
  400eee:	e8 5d fc ff ff       	callq  400b50 <srandom@plt>
  400ef3:	e8 88 fd ff ff       	callq  400c80 <random@plt>
  400ef8:	89 c7                	mov    %eax,%edi
  400efa:	e8 49 02 00 00       	callq  401148 <scramble>
  400eff:	89 c3                	mov    %eax,%ebx
  400f01:	85 ed                	test   %ebp,%ebp
  400f03:	74 1a                	je     400f1f <initialize_target+0x69>
  400f05:	bf 00 00 00 00       	mov    $0x0,%edi
  400f0a:	e8 61 fd ff ff       	callq  400c70 <time@plt>
  400f0f:	89 c7                	mov    %eax,%edi
  400f11:	e8 3a fc ff ff       	callq  400b50 <srandom@plt>
  400f16:	e8 65 fd ff ff       	callq  400c80 <random@plt>
  400f1b:	89 c2                	mov    %eax,%edx
  400f1d:	eb 05                	jmp    400f24 <initialize_target+0x6e>
  400f1f:	ba 00 00 00 00       	mov    $0x0,%edx
  400f24:	8d 04 13             	lea    (%rbx,%rdx,1),%eax
  400f27:	0f b7 c0             	movzwl %ax,%eax
  400f2a:	8d 04 c5 00 01 00 00 	lea    0x100(,%rax,8),%eax
  400f31:	89 c0                	mov    %eax,%eax
  400f33:	48 89 05 a6 37 20 00 	mov    %rax,0x2037a6(%rip)        # 6046e0 <buf_offset>
  400f3a:	c6 05 47 44 20 00 72 	movb   $0x72,0x204447(%rip)        # 605388 <target_prefix>
  400f41:	83 3d a0 37 20 00 00 	cmpl   $0x0,0x2037a0(%rip)        # 6046e8 <notify>
  400f48:	74 31                	je     400f7b <initialize_target+0xc5>
  400f4a:	83 3d 17 38 20 00 00 	cmpl   $0x0,0x203817(%rip)        # 604768 <is_checker>
  400f51:	75 28                	jne    400f7b <initialize_target+0xc5>
  400f53:	48 89 e7             	mov    %rsp,%rdi
  400f56:	e8 7c 19 00 00       	callq  4028d7 <init_driver>
  400f5b:	85 c0                	test   %eax,%eax
  400f5d:	79 1c                	jns    400f7b <initialize_target+0xc5>
  400f5f:	48 89 e6             	mov    %rsp,%rsi
  400f62:	bf c8 2c 40 00       	mov    $0x402cc8,%edi
  400f67:	b8 00 00 00 00       	mov    $0x0,%eax
  400f6c:	e8 3f fc ff ff       	callq  400bb0 <printf@plt>
  400f71:	bf 08 00 00 00       	mov    $0x8,%edi
  400f76:	e8 95 fd ff ff       	callq  400d10 <exit@plt>
  400f7b:	48 81 c4 08 20 00 00 	add    $0x2008,%rsp
  400f82:	5b                   	pop    %rbx
  400f83:	5d                   	pop    %rbp
  400f84:	c3                   	retq   

0000000000400f85 <main>:
  400f85:	41 56                	push   %r14
  400f87:	41 55                	push   %r13
  400f89:	41 54                	push   %r12
  400f8b:	55                   	push   %rbp
  400f8c:	53                   	push   %rbx
  400f8d:	41 89 fc             	mov    %edi,%r12d
  400f90:	48 89 f3             	mov    %rsi,%rbx
  400f93:	be de 1c 40 00       	mov    $0x401cde,%esi
  400f98:	bf 0b 00 00 00       	mov    $0xb,%edi
  400f9d:	e8 6e fc ff ff       	callq  400c10 <signal@plt>
  400fa2:	be 90 1c 40 00       	mov    $0x401c90,%esi
  400fa7:	bf 07 00 00 00       	mov    $0x7,%edi
  400fac:	e8 5f fc ff ff       	callq  400c10 <signal@plt>
  400fb1:	be 2c 1d 40 00       	mov    $0x401d2c,%esi
  400fb6:	bf 04 00 00 00       	mov    $0x4,%edi
  400fbb:	e8 50 fc ff ff       	callq  400c10 <signal@plt>
  400fc0:	83 3d a1 37 20 00 00 	cmpl   $0x0,0x2037a1(%rip)        # 604768 <is_checker>
  400fc7:	74 20                	je     400fe9 <main+0x64>
  400fc9:	be 7a 1d 40 00       	mov    $0x401d7a,%esi
  400fce:	bf 0e 00 00 00       	mov    $0xe,%edi
  400fd3:	e8 38 fc ff ff       	callq  400c10 <signal@plt>
  400fd8:	bf 05 00 00 00       	mov    $0x5,%edi
  400fdd:	e8 ee fb ff ff       	callq  400bd0 <alarm@plt>
  400fe2:	bd 92 2d 40 00       	mov    $0x402d92,%ebp
  400fe7:	eb 05                	jmp    400fee <main+0x69>
  400fe9:	bd 8d 2d 40 00       	mov    $0x402d8d,%ebp
  400fee:	48 8b 05 0b 37 20 00 	mov    0x20370b(%rip),%rax        # 604700 <stdin@@GLIBC_2.2.5>
  400ff5:	48 89 05 54 37 20 00 	mov    %rax,0x203754(%rip)        # 604750 <infile>
  400ffc:	41 bd 00 00 00 00    	mov    $0x0,%r13d
  401002:	41 be 00 00 00 00    	mov    $0x0,%r14d
  401008:	e9 b9 00 00 00       	jmpq   4010c6 <main+0x141>
  40100d:	83 e8 61             	sub    $0x61,%eax
  401010:	3c 10                	cmp    $0x10,%al
  401012:	0f 87 93 00 00 00    	ja     4010ab <main+0x126>
  401018:	0f b6 c0             	movzbl %al,%eax
  40101b:	ff 24 c5 d8 2d 40 00 	jmpq   *0x402dd8(,%rax,8)
  401022:	48 8b 3b             	mov    (%rbx),%rdi
  401025:	e8 0c fe ff ff       	callq  400e36 <usage>
  40102a:	be 5d 30 40 00       	mov    $0x40305d,%esi
  40102f:	48 8b 3d d2 36 20 00 	mov    0x2036d2(%rip),%rdi        # 604708 <optarg@@GLIBC_2.2.5>
  401036:	e8 95 fc ff ff       	callq  400cd0 <fopen@plt>
  40103b:	48 89 05 0e 37 20 00 	mov    %rax,0x20370e(%rip)        # 604750 <infile>
  401042:	48 85 c0             	test   %rax,%rax
  401045:	75 7f                	jne    4010c6 <main+0x141>
  401047:	48 8b 15 ba 36 20 00 	mov    0x2036ba(%rip),%rdx        # 604708 <optarg@@GLIBC_2.2.5>
  40104e:	be 9a 2d 40 00       	mov    $0x402d9a,%esi
  401053:	48 8b 3d b6 36 20 00 	mov    0x2036b6(%rip),%rdi        # 604710 <stderr@@GLIBC_2.2.5>
  40105a:	e8 d1 fb ff ff       	callq  400c30 <fprintf@plt>
  40105f:	b8 01 00 00 00       	mov    $0x1,%eax
  401064:	e9 d6 00 00 00       	jmpq   40113f <main+0x1ba>
  401069:	ba 10 00 00 00       	mov    $0x10,%edx
  40106e:	be 00 00 00 00       	mov    $0x0,%esi
  401073:	48 8b 3d 8e 36 20 00 	mov    0x20368e(%rip),%rdi        # 604708 <optarg@@GLIBC_2.2.5>
  40107a:	e8 71 fc ff ff       	callq  400cf0 <strtoul@plt>
  40107f:	41 89 c6             	mov    %eax,%r14d
  401082:	eb 42                	jmp    4010c6 <main+0x141>
  401084:	ba 0a 00 00 00       	mov    $0xa,%edx
  401089:	be 00 00 00 00       	mov    $0x0,%esi
  40108e:	48 8b 3d 73 36 20 00 	mov    0x203673(%rip),%rdi        # 604708 <optarg@@GLIBC_2.2.5>
  401095:	e8 b6 fb ff ff       	callq  400c50 <strtol@plt>
  40109a:	41 89 c5             	mov    %eax,%r13d
  40109d:	eb 27                	jmp    4010c6 <main+0x141>
  40109f:	c7 05 3f 36 20 00 00 	movl   $0x0,0x20363f(%rip)        # 6046e8 <notify>
  4010a6:	00 00 00 
  4010a9:	eb 1b                	jmp    4010c6 <main+0x141>
  4010ab:	40 0f be f6          	movsbl %sil,%esi
  4010af:	bf b7 2d 40 00       	mov    $0x402db7,%edi
  4010b4:	b8 00 00 00 00       	mov    $0x0,%eax
  4010b9:	e8 f2 fa ff ff       	callq  400bb0 <printf@plt>
  4010be:	48 8b 3b             	mov    (%rbx),%rdi
  4010c1:	e8 70 fd ff ff       	callq  400e36 <usage>
  4010c6:	48 89 ea             	mov    %rbp,%rdx
  4010c9:	48 89 de             	mov    %rbx,%rsi
  4010cc:	44 89 e7             	mov    %r12d,%edi
  4010cf:	e8 0c fc ff ff       	callq  400ce0 <getopt@plt>
  4010d4:	89 c6                	mov    %eax,%esi
  4010d6:	3c ff                	cmp    $0xff,%al
  4010d8:	0f 85 2f ff ff ff    	jne    40100d <main+0x88>
  4010de:	be 01 00 00 00       	mov    $0x1,%esi
  4010e3:	44 89 ef             	mov    %r13d,%edi
  4010e6:	e8 cb fd ff ff       	callq  400eb6 <initialize_target>
  4010eb:	83 3d 76 36 20 00 00 	cmpl   $0x0,0x203676(%rip)        # 604768 <is_checker>
  4010f2:	74 25                	je     401119 <main+0x194>
  4010f4:	44 3b 35 65 36 20 00 	cmp    0x203665(%rip),%r14d        # 604760 <authkey>
  4010fb:	74 1c                	je     401119 <main+0x194>
  4010fd:	44 89 f6             	mov    %r14d,%esi
  401100:	bf f0 2c 40 00       	mov    $0x402cf0,%edi
  401105:	b8 00 00 00 00       	mov    $0x0,%eax
  40110a:	e8 a1 fa ff ff       	callq  400bb0 <printf@plt>
  40110f:	b8 00 00 00 00       	mov    $0x0,%eax
  401114:	e8 86 08 00 00       	callq  40199f <check_fail>
  401119:	8b 35 45 36 20 00    	mov    0x203645(%rip),%esi        # 604764 <cookie>
  40111f:	bf ca 2d 40 00       	mov    $0x402dca,%edi
  401124:	b8 00 00 00 00       	mov    $0x0,%eax
  401129:	e8 82 fa ff ff       	callq  400bb0 <printf@plt>
  40112e:	48 8b 3d ab 35 20 00 	mov    0x2035ab(%rip),%rdi        # 6046e0 <buf_offset>
  401135:	e8 8e 0c 00 00       	callq  401dc8 <launch>
  40113a:	b8 00 00 00 00       	mov    $0x0,%eax
  40113f:	5b                   	pop    %rbx
  401140:	5d                   	pop    %rbp
  401141:	41 5c                	pop    %r12
  401143:	41 5d                	pop    %r13
  401145:	41 5e                	pop    %r14
  401147:	c3                   	retq   

0000000000401148 <scramble>:
  401148:	b8 00 00 00 00       	mov    $0x0,%eax
  40114d:	eb 11                	jmp    401160 <scramble+0x18>
  40114f:	69 d0 69 e2 00 00    	imul   $0xe269,%eax,%edx
  401155:	01 fa                	add    %edi,%edx
  401157:	89 c1                	mov    %eax,%ecx
  401159:	89 54 8c d0          	mov    %edx,-0x30(%rsp,%rcx,4)
  40115d:	83 c0 01             	add    $0x1,%eax
  401160:	83 f8 09             	cmp    $0x9,%eax
  401163:	76 ea                	jbe    40114f <scramble+0x7>
  401165:	8b 44 24 f0          	mov    -0x10(%rsp),%eax
  401169:	69 c0 10 a6 00 00    	imul   $0xa610,%eax,%eax
  40116f:	89 44 24 f0          	mov    %eax,-0x10(%rsp)
  401173:	8b 44 24 f0          	mov    -0x10(%rsp),%eax
  401177:	69 c0 dd 5b 00 00    	imul   $0x5bdd,%eax,%eax
  40117d:	89 44 24 f0          	mov    %eax,-0x10(%rsp)
  401181:	8b 44 24 e0          	mov    -0x20(%rsp),%eax
  401185:	69 c0 4e dd 00 00    	imul   $0xdd4e,%eax,%eax
  40118b:	89 44 24 e0          	mov    %eax,-0x20(%rsp)
  40118f:	8b 44 24 d4          	mov    -0x2c(%rsp),%eax
  401193:	69 c0 8c e4 00 00    	imul   $0xe48c,%eax,%eax
  401199:	89 44 24 d4          	mov    %eax,-0x2c(%rsp)
  40119d:	8b 44 24 e4          	mov    -0x1c(%rsp),%eax
  4011a1:	69 c0 c4 eb 00 00    	imul   $0xebc4,%eax,%eax
  4011a7:	89 44 24 e4          	mov    %eax,-0x1c(%rsp)
  4011ab:	8b 44 24 e4          	mov    -0x1c(%rsp),%eax
  4011af:	69 c0 26 cc 00 00    	imul   $0xcc26,%eax,%eax
  4011b5:	89 44 24 e4          	mov    %eax,-0x1c(%rsp)
  4011b9:	8b 44 24 ec          	mov    -0x14(%rsp),%eax
  4011bd:	69 c0 a3 6c 00 00    	imul   $0x6ca3,%eax,%eax
  4011c3:	89 44 24 ec          	mov    %eax,-0x14(%rsp)
  4011c7:	8b 44 24 d0          	mov    -0x30(%rsp),%eax
  4011cb:	69 c0 ee c8 00 00    	imul   $0xc8ee,%eax,%eax
  4011d1:	89 44 24 d0          	mov    %eax,-0x30(%rsp)
  4011d5:	8b 44 24 d0          	mov    -0x30(%rsp),%eax
  4011d9:	69 c0 a6 9d 00 00    	imul   $0x9da6,%eax,%eax
  4011df:	89 44 24 d0          	mov    %eax,-0x30(%rsp)
  4011e3:	8b 44 24 e4          	mov    -0x1c(%rsp),%eax
  4011e7:	69 c0 ff 43 00 00    	imul   $0x43ff,%eax,%eax
  4011ed:	89 44 24 e4          	mov    %eax,-0x1c(%rsp)
  4011f1:	8b 44 24 f0          	mov    -0x10(%rsp),%eax
  4011f5:	69 c0 2a 6a 00 00    	imul   $0x6a2a,%eax,%eax
  4011fb:	89 44 24 f0          	mov    %eax,-0x10(%rsp)
  4011ff:	8b 44 24 dc          	mov    -0x24(%rsp),%eax
  401203:	69 c0 95 ce 00 00    	imul   $0xce95,%eax,%eax
  401209:	89 44 24 dc          	mov    %eax,-0x24(%rsp)
  40120d:	8b 44 24 f0          	mov    -0x10(%rsp),%eax
  401211:	69 c0 0d fa 00 00    	imul   $0xfa0d,%eax,%eax
  401217:	89 44 24 f0          	mov    %eax,-0x10(%rsp)
  40121b:	8b 44 24 f0          	mov    -0x10(%rsp),%eax
  40121f:	69 c0 4b a9 00 00    	imul   $0xa94b,%eax,%eax
  401225:	89 44 24 f0          	mov    %eax,-0x10(%rsp)
  401229:	8b 44 24 e0          	mov    -0x20(%rsp),%eax
  40122d:	8d 04 40             	lea    (%rax,%rax,2),%eax
  401230:	c1 e0 03             	shl    $0x3,%eax
  401233:	89 44 24 e0          	mov    %eax,-0x20(%rsp)
  401237:	8b 44 24 e8          	mov    -0x18(%rsp),%eax
  40123b:	69 c0 8f 3d 00 00    	imul   $0x3d8f,%eax,%eax
  401241:	89 44 24 e8          	mov    %eax,-0x18(%rsp)
  401245:	8b 44 24 e8          	mov    -0x18(%rsp),%eax
  401249:	69 c0 22 ae 00 00    	imul   $0xae22,%eax,%eax
  40124f:	89 44 24 e8          	mov    %eax,-0x18(%rsp)
  401253:	8b 44 24 f0          	mov    -0x10(%rsp),%eax
  401257:	69 c0 f0 49 00 00    	imul   $0x49f0,%eax,%eax
  40125d:	89 44 24 f0          	mov    %eax,-0x10(%rsp)
  401261:	8b 44 24 d0          	mov    -0x30(%rsp),%eax
  401265:	69 c0 b5 d5 00 00    	imul   $0xd5b5,%eax,%eax
  40126b:	89 44 24 d0          	mov    %eax,-0x30(%rsp)
  40126f:	8b 44 24 ec          	mov    -0x14(%rsp),%eax
  401273:	69 c0 c2 e5 00 00    	imul   $0xe5c2,%eax,%eax
  401279:	89 44 24 ec          	mov    %eax,-0x14(%rsp)
  40127d:	8b 44 24 f0          	mov    -0x10(%rsp),%eax
  401281:	69 c0 87 09 00 00    	imul   $0x987,%eax,%eax
  401287:	89 44 24 f0          	mov    %eax,-0x10(%rsp)
  40128b:	8b 44 24 d4          	mov    -0x2c(%rsp),%eax
  40128f:	69 c0 52 5d 00 00    	imul   $0x5d52,%eax,%eax
  401295:	89 44 24 d4          	mov    %eax,-0x2c(%rsp)
  401299:	8b 44 24 d8          	mov    -0x28(%rsp),%eax
  40129d:	69 c0 16 0a 00 00    	imul   $0xa16,%eax,%eax
  4012a3:	89 44 24 d8          	mov    %eax,-0x28(%rsp)
  4012a7:	8b 44 24 e0          	mov    -0x20(%rsp),%eax
  4012ab:	69 c0 d1 98 00 00    	imul   $0x98d1,%eax,%eax
  4012b1:	89 44 24 e0          	mov    %eax,-0x20(%rsp)
  4012b5:	8b 44 24 f0          	mov    -0x10(%rsp),%eax
  4012b9:	69 c0 79 37 00 00    	imul   $0x3779,%eax,%eax
  4012bf:	89 44 24 f0          	mov    %eax,-0x10(%rsp)
  4012c3:	8b 44 24 ec          	mov    -0x14(%rsp),%eax
  4012c7:	69 c0 0f 30 00 00    	imul   $0x300f,%eax,%eax
  4012cd:	89 44 24 ec          	mov    %eax,-0x14(%rsp)
  4012d1:	8b 44 24 e8          	mov    -0x18(%rsp),%eax
  4012d5:	69 c0 1a 9d 00 00    	imul   $0x9d1a,%eax,%eax
  4012db:	89 44 24 e8          	mov    %eax,-0x18(%rsp)
  4012df:	8b 44 24 f4          	mov    -0xc(%rsp),%eax
  4012e3:	6b c0 3c             	imul   $0x3c,%eax,%eax
  4012e6:	89 44 24 f4          	mov    %eax,-0xc(%rsp)
  4012ea:	8b 44 24 e0          	mov    -0x20(%rsp),%eax
  4012ee:	69 c0 eb 76 00 00    	imul   $0x76eb,%eax,%eax
  4012f4:	89 44 24 e0          	mov    %eax,-0x20(%rsp)
  4012f8:	8b 44 24 ec          	mov    -0x14(%rsp),%eax
  4012fc:	69 c0 4e f2 00 00    	imul   $0xf24e,%eax,%eax
  401302:	89 44 24 ec          	mov    %eax,-0x14(%rsp)
  401306:	8b 44 24 ec          	mov    -0x14(%rsp),%eax
  40130a:	69 c0 f2 27 00 00    	imul   $0x27f2,%eax,%eax
  401310:	89 44 24 ec          	mov    %eax,-0x14(%rsp)
  401314:	8b 44 24 d8          	mov    -0x28(%rsp),%eax
  401318:	69 c0 2c 1d 00 00    	imul   $0x1d2c,%eax,%eax
  40131e:	89 44 24 d8          	mov    %eax,-0x28(%rsp)
  401322:	8b 44 24 d8          	mov    -0x28(%rsp),%eax
  401326:	69 c0 4a c9 00 00    	imul   $0xc94a,%eax,%eax
  40132c:	89 44 24 d8          	mov    %eax,-0x28(%rsp)
  401330:	8b 44 24 ec          	mov    -0x14(%rsp),%eax
  401334:	69 c0 84 61 00 00    	imul   $0x6184,%eax,%eax
  40133a:	89 44 24 ec          	mov    %eax,-0x14(%rsp)
  40133e:	8b 44 24 d8          	mov    -0x28(%rsp),%eax
  401342:	69 c0 99 95 00 00    	imul   $0x9599,%eax,%eax
  401348:	89 44 24 d8          	mov    %eax,-0x28(%rsp)
  40134c:	8b 44 24 d0          	mov    -0x30(%rsp),%eax
  401350:	69 c0 78 60 00 00    	imul   $0x6078,%eax,%eax
  401356:	89 44 24 d0          	mov    %eax,-0x30(%rsp)
  40135a:	8b 44 24 d4          	mov    -0x2c(%rsp),%eax
  40135e:	69 c0 2f f9 00 00    	imul   $0xf92f,%eax,%eax
  401364:	89 44 24 d4          	mov    %eax,-0x2c(%rsp)
  401368:	8b 44 24 d4          	mov    -0x2c(%rsp),%eax
  40136c:	69 c0 4b 15 00 00    	imul   $0x154b,%eax,%eax
  401372:	89 44 24 d4          	mov    %eax,-0x2c(%rsp)
  401376:	8b 44 24 e0          	mov    -0x20(%rsp),%eax
  40137a:	69 c0 0b e4 00 00    	imul   $0xe40b,%eax,%eax
  401380:	89 44 24 e0          	mov    %eax,-0x20(%rsp)
  401384:	8b 44 24 f0          	mov    -0x10(%rsp),%eax
  401388:	69 c0 01 ab 00 00    	imul   $0xab01,%eax,%eax
  40138e:	89 44 24 f0          	mov    %eax,-0x10(%rsp)
  401392:	8b 44 24 e8          	mov    -0x18(%rsp),%eax
  401396:	69 c0 ec 8a 00 00    	imul   $0x8aec,%eax,%eax
  40139c:	89 44 24 e8          	mov    %eax,-0x18(%rsp)
  4013a0:	8b 44 24 d8          	mov    -0x28(%rsp),%eax
  4013a4:	69 c0 27 bd 00 00    	imul   $0xbd27,%eax,%eax
  4013aa:	89 44 24 d8          	mov    %eax,-0x28(%rsp)
  4013ae:	8b 44 24 f0          	mov    -0x10(%rsp),%eax
  4013b2:	69 c0 b5 d9 00 00    	imul   $0xd9b5,%eax,%eax
  4013b8:	89 44 24 f0          	mov    %eax,-0x10(%rsp)
  4013bc:	8b 44 24 d0          	mov    -0x30(%rsp),%eax
  4013c0:	69 c0 2e bf 00 00    	imul   $0xbf2e,%eax,%eax
  4013c6:	89 44 24 d0          	mov    %eax,-0x30(%rsp)
  4013ca:	8b 44 24 e0          	mov    -0x20(%rsp),%eax
  4013ce:	69 c0 ec 66 00 00    	imul   $0x66ec,%eax,%eax
  4013d4:	89 44 24 e0          	mov    %eax,-0x20(%rsp)
  4013d8:	8b 44 24 d8          	mov    -0x28(%rsp),%eax
  4013dc:	69 c0 a3 c7 00 00    	imul   $0xc7a3,%eax,%eax
  4013e2:	89 44 24 d8          	mov    %eax,-0x28(%rsp)
  4013e6:	8b 44 24 e4          	mov    -0x1c(%rsp),%eax
  4013ea:	69 c0 59 e1 00 00    	imul   $0xe159,%eax,%eax
  4013f0:	89 44 24 e4          	mov    %eax,-0x1c(%rsp)
  4013f4:	8b 44 24 ec          	mov    -0x14(%rsp),%eax
  4013f8:	69 c0 f2 64 00 00    	imul   $0x64f2,%eax,%eax
  4013fe:	89 44 24 ec          	mov    %eax,-0x14(%rsp)
  401402:	8b 44 24 e8          	mov    -0x18(%rsp),%eax
  401406:	69 c0 ec 4b 00 00    	imul   $0x4bec,%eax,%eax
  40140c:	89 44 24 e8          	mov    %eax,-0x18(%rsp)
  401410:	8b 44 24 dc          	mov    -0x24(%rsp),%eax
  401414:	69 c0 a2 49 00 00    	imul   $0x49a2,%eax,%eax
  40141a:	89 44 24 dc          	mov    %eax,-0x24(%rsp)
  40141e:	8b 44 24 e4          	mov    -0x1c(%rsp),%eax
  401422:	69 c0 bd 0d 00 00    	imul   $0xdbd,%eax,%eax
  401428:	89 44 24 e4          	mov    %eax,-0x1c(%rsp)
  40142c:	8b 44 24 e0          	mov    -0x20(%rsp),%eax
  401430:	69 c0 a5 80 00 00    	imul   $0x80a5,%eax,%eax
  401436:	89 44 24 e0          	mov    %eax,-0x20(%rsp)
  40143a:	8b 44 24 e4          	mov    -0x1c(%rsp),%eax
  40143e:	69 c0 e6 67 00 00    	imul   $0x67e6,%eax,%eax
  401444:	89 44 24 e4          	mov    %eax,-0x1c(%rsp)
  401448:	8b 44 24 dc          	mov    -0x24(%rsp),%eax
  40144c:	69 c0 31 0a 00 00    	imul   $0xa31,%eax,%eax
  401452:	89 44 24 dc          	mov    %eax,-0x24(%rsp)
  401456:	8b 44 24 d8          	mov    -0x28(%rsp),%eax
  40145a:	69 c0 0d 44 00 00    	imul   $0x440d,%eax,%eax
  401460:	89 44 24 d8          	mov    %eax,-0x28(%rsp)
  401464:	8b 44 24 e0          	mov    -0x20(%rsp),%eax
  401468:	69 c0 76 67 00 00    	imul   $0x6776,%eax,%eax
  40146e:	89 44 24 e0          	mov    %eax,-0x20(%rsp)
  401472:	8b 44 24 ec          	mov    -0x14(%rsp),%eax
  401476:	69 c0 42 90 00 00    	imul   $0x9042,%eax,%eax
  40147c:	89 44 24 ec          	mov    %eax,-0x14(%rsp)
  401480:	8b 44 24 dc          	mov    -0x24(%rsp),%eax
  401484:	69 c0 00 f7 00 00    	imul   $0xf700,%eax,%eax
  40148a:	89 44 24 dc          	mov    %eax,-0x24(%rsp)
  40148e:	8b 44 24 d8          	mov    -0x28(%rsp),%eax
  401492:	69 c0 01 e2 00 00    	imul   $0xe201,%eax,%eax
  401498:	89 44 24 d8          	mov    %eax,-0x28(%rsp)
  40149c:	8b 44 24 d4          	mov    -0x2c(%rsp),%eax
  4014a0:	69 c0 97 ba 00 00    	imul   $0xba97,%eax,%eax
  4014a6:	89 44 24 d4          	mov    %eax,-0x2c(%rsp)
  4014aa:	8b 44 24 d4          	mov    -0x2c(%rsp),%eax
  4014ae:	69 c0 aa 67 00 00    	imul   $0x67aa,%eax,%eax
  4014b4:	89 44 24 d4          	mov    %eax,-0x2c(%rsp)
  4014b8:	8b 44 24 d0          	mov    -0x30(%rsp),%eax
  4014bc:	69 c0 cb d7 00 00    	imul   $0xd7cb,%eax,%eax
  4014c2:	89 44 24 d0          	mov    %eax,-0x30(%rsp)
  4014c6:	8b 44 24 f4          	mov    -0xc(%rsp),%eax
  4014ca:	69 c0 0a 67 00 00    	imul   $0x670a,%eax,%eax
  4014d0:	89 44 24 f4          	mov    %eax,-0xc(%rsp)
  4014d4:	8b 44 24 e8          	mov    -0x18(%rsp),%eax
  4014d8:	69 c0 a7 f3 00 00    	imul   $0xf3a7,%eax,%eax
  4014de:	89 44 24 e8          	mov    %eax,-0x18(%rsp)
  4014e2:	8b 44 24 e8          	mov    -0x18(%rsp),%eax
  4014e6:	69 c0 34 03 00 00    	imul   $0x334,%eax,%eax
  4014ec:	89 44 24 e8          	mov    %eax,-0x18(%rsp)
  4014f0:	8b 44 24 f4          	mov    -0xc(%rsp),%eax
  4014f4:	69 c0 7b 94 00 00    	imul   $0x947b,%eax,%eax
  4014fa:	89 44 24 f4          	mov    %eax,-0xc(%rsp)
  4014fe:	8b 44 24 dc          	mov    -0x24(%rsp),%eax
  401502:	69 c0 65 e7 00 00    	imul   $0xe765,%eax,%eax
  401508:	89 44 24 dc          	mov    %eax,-0x24(%rsp)
  40150c:	8b 44 24 f4          	mov    -0xc(%rsp),%eax
  401510:	69 c0 dd 17 00 00    	imul   $0x17dd,%eax,%eax
  401516:	89 44 24 f4          	mov    %eax,-0xc(%rsp)
  40151a:	8b 44 24 d8          	mov    -0x28(%rsp),%eax
  40151e:	69 c0 12 ab 00 00    	imul   $0xab12,%eax,%eax
  401524:	89 44 24 d8          	mov    %eax,-0x28(%rsp)
  401528:	8b 44 24 f4          	mov    -0xc(%rsp),%eax
  40152c:	69 c0 3c 9b 00 00    	imul   $0x9b3c,%eax,%eax
  401532:	89 44 24 f4          	mov    %eax,-0xc(%rsp)
  401536:	8b 44 24 e8          	mov    -0x18(%rsp),%eax
  40153a:	69 c0 40 d7 00 00    	imul   $0xd740,%eax,%eax
  401540:	89 44 24 e8          	mov    %eax,-0x18(%rsp)
  401544:	8b 44 24 e0          	mov    -0x20(%rsp),%eax
  401548:	69 c0 19 be 00 00    	imul   $0xbe19,%eax,%eax
  40154e:	89 44 24 e0          	mov    %eax,-0x20(%rsp)
  401552:	8b 44 24 d8          	mov    -0x28(%rsp),%eax
  401556:	69 c0 50 27 00 00    	imul   $0x2750,%eax,%eax
  40155c:	89 44 24 d8          	mov    %eax,-0x28(%rsp)
  401560:	8b 44 24 dc          	mov    -0x24(%rsp),%eax
  401564:	69 c0 7a d1 00 00    	imul   $0xd17a,%eax,%eax
  40156a:	89 44 24 dc          	mov    %eax,-0x24(%rsp)
  40156e:	8b 44 24 dc          	mov    -0x24(%rsp),%eax
  401572:	69 c0 48 6b 00 00    	imul   $0x6b48,%eax,%eax
  401578:	89 44 24 dc          	mov    %eax,-0x24(%rsp)
  40157c:	8b 44 24 dc          	mov    -0x24(%rsp),%eax
  401580:	69 c0 3f 52 00 00    	imul   $0x523f,%eax,%eax
  401586:	89 44 24 dc          	mov    %eax,-0x24(%rsp)
  40158a:	8b 44 24 d0          	mov    -0x30(%rsp),%eax
  40158e:	69 c0 4c 0e 00 00    	imul   $0xe4c,%eax,%eax
  401594:	89 44 24 d0          	mov    %eax,-0x30(%rsp)
  401598:	8b 44 24 e4          	mov    -0x1c(%rsp),%eax
  40159c:	69 c0 f7 1b 00 00    	imul   $0x1bf7,%eax,%eax
  4015a2:	89 44 24 e4          	mov    %eax,-0x1c(%rsp)
  4015a6:	8b 44 24 d8          	mov    -0x28(%rsp),%eax
  4015aa:	69 c0 c8 66 00 00    	imul   $0x66c8,%eax,%eax
  4015b0:	89 44 24 d8          	mov    %eax,-0x28(%rsp)
  4015b4:	8b 44 24 d8          	mov    -0x28(%rsp),%eax
  4015b8:	69 c0 4d 28 00 00    	imul   $0x284d,%eax,%eax
  4015be:	89 44 24 d8          	mov    %eax,-0x28(%rsp)
  4015c2:	8b 44 24 dc          	mov    -0x24(%rsp),%eax
  4015c6:	69 c0 e8 4c 00 00    	imul   $0x4ce8,%eax,%eax
  4015cc:	89 44 24 dc          	mov    %eax,-0x24(%rsp)
  4015d0:	8b 44 24 d4          	mov    -0x2c(%rsp),%eax
  4015d4:	69 c0 ed 7a 00 00    	imul   $0x7aed,%eax,%eax
  4015da:	89 44 24 d4          	mov    %eax,-0x2c(%rsp)
  4015de:	8b 44 24 f0          	mov    -0x10(%rsp),%eax
  4015e2:	69 c0 ea d1 00 00    	imul   $0xd1ea,%eax,%eax
  4015e8:	89 44 24 f0          	mov    %eax,-0x10(%rsp)
  4015ec:	8b 44 24 e8          	mov    -0x18(%rsp),%eax
  4015f0:	69 c0 98 83 00 00    	imul   $0x8398,%eax,%eax
  4015f6:	89 44 24 e8          	mov    %eax,-0x18(%rsp)
  4015fa:	8b 44 24 e4          	mov    -0x1c(%rsp),%eax
  4015fe:	69 c0 d8 b4 00 00    	imul   $0xb4d8,%eax,%eax
  401604:	89 44 24 e4          	mov    %eax,-0x1c(%rsp)
  401608:	8b 44 24 e8          	mov    -0x18(%rsp),%eax
  40160c:	69 c0 1b 6c 00 00    	imul   $0x6c1b,%eax,%eax
  401612:	89 44 24 e8          	mov    %eax,-0x18(%rsp)
  401616:	8b 44 24 d4          	mov    -0x2c(%rsp),%eax
  40161a:	69 c0 87 21 00 00    	imul   $0x2187,%eax,%eax
  401620:	89 44 24 d4          	mov    %eax,-0x2c(%rsp)
  401624:	8b 44 24 ec          	mov    -0x14(%rsp),%eax
  401628:	69 c0 9a f3 00 00    	imul   $0xf39a,%eax,%eax
  40162e:	89 44 24 ec          	mov    %eax,-0x14(%rsp)
  401632:	8b 44 24 d0          	mov    -0x30(%rsp),%eax
  401636:	69 c0 4f df 00 00    	imul   $0xdf4f,%eax,%eax
  40163c:	89 44 24 d0          	mov    %eax,-0x30(%rsp)
  401640:	8b 44 24 f4          	mov    -0xc(%rsp),%eax
  401644:	69 c0 29 52 00 00    	imul   $0x5229,%eax,%eax
  40164a:	89 44 24 f4          	mov    %eax,-0xc(%rsp)
  40164e:	8b 44 24 f0          	mov    -0x10(%rsp),%eax
  401652:	69 c0 26 51 00 00    	imul   $0x5126,%eax,%eax
  401658:	89 44 24 f0          	mov    %eax,-0x10(%rsp)
  40165c:	ba 00 00 00 00       	mov    $0x0,%edx
  401661:	b8 00 00 00 00       	mov    $0x0,%eax
  401666:	eb 0b                	jmp    401673 <scramble+0x52b>
  401668:	89 d1                	mov    %edx,%ecx
  40166a:	8b 4c 8c d0          	mov    -0x30(%rsp,%rcx,4),%ecx
  40166e:	01 c8                	add    %ecx,%eax
  401670:	83 c2 01             	add    $0x1,%edx
  401673:	83 fa 09             	cmp    $0x9,%edx
  401676:	76 f0                	jbe    401668 <scramble+0x520>
  401678:	f3 c3                	repz retq 

000000000040167a <getbuf>:
  40167a:	48 83 ec 18          	sub    $0x18,%rsp
  40167e:	48 89 e7             	mov    %rsp,%rdi
  401681:	e8 48 03 00 00       	callq  4019ce <Gets>
  401686:	b8 01 00 00 00       	mov    $0x1,%eax
  40168b:	48 83 c4 18          	add    $0x18,%rsp
  40168f:	c3                   	retq   

0000000000401690 <touch1>:
  401690:	48 83 ec 08          	sub    $0x8,%rsp
  401694:	c7 05 be 30 20 00 01 	movl   $0x1,0x2030be(%rip)        # 60475c <vlevel>
  40169b:	00 00 00 
  40169e:	bf b0 2e 40 00       	mov    $0x402eb0,%edi
  4016a3:	e8 d8 f4 ff ff       	callq  400b80 <puts@plt>
  4016a8:	bf 01 00 00 00       	mov    $0x1,%edi
  4016ad:	e8 04 05 00 00       	callq  401bb6 <validate>
  4016b2:	bf 00 00 00 00       	mov    $0x0,%edi
  4016b7:	e8 54 f6 ff ff       	callq  400d10 <exit@plt>

00000000004016bc <touch2>:
  4016bc:	48 83 ec 08          	sub    $0x8,%rsp
  4016c0:	89 fe                	mov    %edi,%esi
  4016c2:	c7 05 90 30 20 00 02 	movl   $0x2,0x203090(%rip)        # 60475c <vlevel>
  4016c9:	00 00 00 
  4016cc:	3b 3d 92 30 20 00    	cmp    0x203092(%rip),%edi        # 604764 <cookie>
  4016d2:	75 1b                	jne    4016ef <touch2+0x33>
  4016d4:	bf d8 2e 40 00       	mov    $0x402ed8,%edi
  4016d9:	b8 00 00 00 00       	mov    $0x0,%eax
  4016de:	e8 cd f4 ff ff       	callq  400bb0 <printf@plt>
  4016e3:	bf 02 00 00 00       	mov    $0x2,%edi
  4016e8:	e8 c9 04 00 00       	callq  401bb6 <validate>
  4016ed:	eb 19                	jmp    401708 <touch2+0x4c>
  4016ef:	bf 00 2f 40 00       	mov    $0x402f00,%edi
  4016f4:	b8 00 00 00 00       	mov    $0x0,%eax
  4016f9:	e8 b2 f4 ff ff       	callq  400bb0 <printf@plt>
  4016fe:	bf 02 00 00 00       	mov    $0x2,%edi
  401703:	e8 60 05 00 00       	callq  401c68 <fail>
  401708:	bf 00 00 00 00       	mov    $0x0,%edi
  40170d:	e8 fe f5 ff ff       	callq  400d10 <exit@plt>

0000000000401712 <hexmatch>:
  401712:	41 54                	push   %r12
  401714:	55                   	push   %rbp
  401715:	53                   	push   %rbx
  401716:	48 83 ec 70          	sub    $0x70,%rsp
  40171a:	89 fd                	mov    %edi,%ebp
  40171c:	48 89 f3             	mov    %rsi,%rbx
  40171f:	e8 5c f5 ff ff       	callq  400c80 <random@plt>
  401724:	48 89 c6             	mov    %rax,%rsi
  401727:	48 b9 0b d7 a3 70 3d 	movabs $0xa3d70a3d70a3d70b,%rcx
  40172e:	0a d7 a3 
  401731:	48 f7 e9             	imul   %rcx
  401734:	48 8d 0c 32          	lea    (%rdx,%rsi,1),%rcx
  401738:	48 c1 f9 06          	sar    $0x6,%rcx
  40173c:	48 89 f0             	mov    %rsi,%rax
  40173f:	48 c1 f8 3f          	sar    $0x3f,%rax
  401743:	48 29 c1             	sub    %rax,%rcx
  401746:	48 8d 04 89          	lea    (%rcx,%rcx,4),%rax
  40174a:	48 8d 04 80          	lea    (%rax,%rax,4),%rax
  40174e:	48 c1 e0 02          	shl    $0x2,%rax
  401752:	48 29 c6             	sub    %rax,%rsi
  401755:	4c 8d 24 34          	lea    (%rsp,%rsi,1),%r12
  401759:	89 ea                	mov    %ebp,%edx
  40175b:	be cd 2e 40 00       	mov    $0x402ecd,%esi
  401760:	4c 89 e7             	mov    %r12,%rdi
  401763:	b8 00 00 00 00       	mov    $0x0,%eax
  401768:	e8 93 f5 ff ff       	callq  400d00 <sprintf@plt>
  40176d:	ba 09 00 00 00       	mov    $0x9,%edx
  401772:	4c 89 e6             	mov    %r12,%rsi
  401775:	48 89 df             	mov    %rbx,%rdi
  401778:	e8 e3 f3 ff ff       	callq  400b60 <strncmp@plt>
  40177d:	85 c0                	test   %eax,%eax
  40177f:	0f 94 c0             	sete   %al
  401782:	0f b6 c0             	movzbl %al,%eax
  401785:	48 83 c4 70          	add    $0x70,%rsp
  401789:	5b                   	pop    %rbx
  40178a:	5d                   	pop    %rbp
  40178b:	41 5c                	pop    %r12
  40178d:	c3                   	retq   

000000000040178e <touch3>:
  40178e:	53                   	push   %rbx
  40178f:	48 89 fb             	mov    %rdi,%rbx
  401792:	c7 05 c0 2f 20 00 03 	movl   $0x3,0x202fc0(%rip)        # 60475c <vlevel>
  401799:	00 00 00 
  40179c:	48 89 fe             	mov    %rdi,%rsi
  40179f:	8b 3d bf 2f 20 00    	mov    0x202fbf(%rip),%edi        # 604764 <cookie>
  4017a5:	e8 68 ff ff ff       	callq  401712 <hexmatch>
  4017aa:	85 c0                	test   %eax,%eax
  4017ac:	74 1e                	je     4017cc <touch3+0x3e>
  4017ae:	48 89 de             	mov    %rbx,%rsi
  4017b1:	bf 28 2f 40 00       	mov    $0x402f28,%edi
  4017b6:	b8 00 00 00 00       	mov    $0x0,%eax
  4017bb:	e8 f0 f3 ff ff       	callq  400bb0 <printf@plt>
  4017c0:	bf 03 00 00 00       	mov    $0x3,%edi
  4017c5:	e8 ec 03 00 00       	callq  401bb6 <validate>
  4017ca:	eb 1c                	jmp    4017e8 <touch3+0x5a>
  4017cc:	48 89 de             	mov    %rbx,%rsi
  4017cf:	bf 50 2f 40 00       	mov    $0x402f50,%edi
  4017d4:	b8 00 00 00 00       	mov    $0x0,%eax
  4017d9:	e8 d2 f3 ff ff       	callq  400bb0 <printf@plt>
  4017de:	bf 03 00 00 00       	mov    $0x3,%edi
  4017e3:	e8 80 04 00 00       	callq  401c68 <fail>
  4017e8:	bf 00 00 00 00       	mov    $0x0,%edi
  4017ed:	e8 1e f5 ff ff       	callq  400d10 <exit@plt>

00000000004017f2 <test>:
  4017f2:	48 83 ec 08          	sub    $0x8,%rsp
  4017f6:	b8 00 00 00 00       	mov    $0x0,%eax
  4017fb:	e8 7a fe ff ff       	callq  40167a <getbuf>
  401800:	89 c6                	mov    %eax,%esi
  401802:	bf 78 2f 40 00       	mov    $0x402f78,%edi
  401807:	b8 00 00 00 00       	mov    $0x0,%eax
  40180c:	e8 9f f3 ff ff       	callq  400bb0 <printf@plt>
  401811:	48 83 c4 08          	add    $0x8,%rsp
  401815:	c3                   	retq   

0000000000401816 <start_farm>:
  401816:	b8 01 00 00 00       	mov    $0x1,%eax
  40181b:	c3                   	retq   

000000000040181c <getval_233>:
  40181c:	b8 48 89 c7 94       	mov    $0x94c78948,%eax
  401821:	c3                   	retq   

0000000000401822 <addval_232>:
  401822:	8d 87 48 89 c7 c3    	lea    -0x3c3876b8(%rdi),%eax
  401828:	c3                   	retq   

0000000000401829 <setval_130>:
  401829:	c7 07 b8 d8 c3 90    	movl   $0x90c3d8b8,(%rdi)
  40182f:	c3                   	retq   

0000000000401830 <getval_363>:
  401830:	b8 2e 58 c3 f2       	mov    $0xf2c3582e,%eax
  401835:	c3                   	retq   

0000000000401836 <addval_228>:
  401836:	8d 87 48 89 c7 c3    	lea    -0x3c3876b8(%rdi),%eax
  40183c:	c3                   	retq   

000000000040183d <setval_488>:
  40183d:	c7 07 90 32 58 90    	movl   $0x90583290,(%rdi)
  401843:	c3                   	retq   

0000000000401844 <setval_330>:
  401844:	c7 07 52 48 8b c7    	movl   $0xc78b4852,(%rdi)
  40184a:	c3                   	retq   

000000000040184b <setval_186>:
  40184b:	c7 07 15 8e 78 90    	movl   $0x90788e15,(%rdi)
  401851:	c3                   	retq   

0000000000401852 <mid_farm>:
  401852:	b8 01 00 00 00       	mov    $0x1,%eax
  401857:	c3                   	retq   

0000000000401858 <add_xy>:
  401858:	48 8d 04 37          	lea    (%rdi,%rsi,1),%rax
  40185c:	c3                   	retq   

000000000040185d <addval_333>:
  40185d:	8d 87 99 d6 c3 ef    	lea    -0x103c2967(%rdi),%eax
  401863:	c3                   	retq   

0000000000401864 <getval_124>:
  401864:	b8 99 c1 08 c9       	mov    $0xc908c199,%eax
  401869:	c3                   	retq   

000000000040186a <setval_424>:
  40186a:	c7 07 99 ca 08 c0    	movl   $0xc008ca99,(%rdi)
  401870:	c3                   	retq   

0000000000401871 <getval_385>:
  401871:	b8 89 d6 48 c9       	mov    $0xc948d689,%eax
  401876:	c3                   	retq   

0000000000401877 <getval_351>:
  401877:	b8 88 c1 38 c9       	mov    $0xc938c188,%eax
  40187c:	c3                   	retq   

000000000040187d <setval_392>:
  40187d:	c7 07 48 88 e0 90    	movl   $0x90e08848,(%rdi)
  401883:	c3                   	retq   

0000000000401884 <setval_400>:
  401884:	c7 07 75 89 d6 91    	movl   $0x91d68975,(%rdi)
  40188a:	c3                   	retq   

000000000040188b <setval_198>:
  40188b:	c7 07 48 89 e0 c1    	movl   $0xc1e08948,(%rdi)
  401891:	c3                   	retq   

0000000000401892 <getval_303>:
  401892:	b8 8b ca 20 db       	mov    $0xdb20ca8b,%eax
  401897:	c3                   	retq   

0000000000401898 <getval_324>:
  401898:	b8 48 89 e0 92       	mov    $0x92e08948,%eax
  40189d:	c3                   	retq   

000000000040189e <getval_346>:
  40189e:	b8 48 89 e0 c7       	mov    $0xc7e08948,%eax
  4018a3:	c3                   	retq   

00000000004018a4 <addval_108>:
  4018a4:	8d 87 48 88 e0 c3    	lea    -0x3c1f77b8(%rdi),%eax
  4018aa:	c3                   	retq   

00000000004018ab <getval_123>:
  4018ab:	b8 89 ca 78 c9       	mov    $0xc978ca89,%eax
  4018b0:	c3                   	retq   

00000000004018b1 <getval_100>:
  4018b1:	b8 48 89 e0 c3       	mov    $0xc3e08948,%eax
  4018b6:	c3                   	retq   

00000000004018b7 <addval_399>:
  4018b7:	8d 87 09 c1 08 c9    	lea    -0x36f73ef7(%rdi),%eax
  4018bd:	c3                   	retq   

00000000004018be <setval_476>:
  4018be:	c7 07 48 81 e0 90    	movl   $0x90e08148,(%rdi)
  4018c4:	c3                   	retq   

00000000004018c5 <addval_405>:
  4018c5:	8d 87 c9 ca 20 c9    	lea    -0x36df3537(%rdi),%eax
  4018cb:	c3                   	retq   

00000000004018cc <getval_282>:
  4018cc:	b8 89 c1 20 c9       	mov    $0xc920c189,%eax
  4018d1:	c3                   	retq   

00000000004018d2 <setval_230>:
  4018d2:	c7 07 99 d6 38 d2    	movl   $0xd238d699,(%rdi)
  4018d8:	c3                   	retq   

00000000004018d9 <setval_499>:
  4018d9:	c7 07 89 d6 08 db    	movl   $0xdb08d689,(%rdi)
  4018df:	c3                   	retq   

00000000004018e0 <getval_493>:
  4018e0:	b8 c9 c1 08 db       	mov    $0xdb08c1c9,%eax
  4018e5:	c3                   	retq   

00000000004018e6 <addval_487>:
  4018e6:	8d 87 89 c1 20 d2    	lea    -0x2ddf3e77(%rdi),%eax
  4018ec:	c3                   	retq   

00000000004018ed <addval_451>:
  4018ed:	8d 87 89 d6 90 90    	lea    -0x6f6f2977(%rdi),%eax
  4018f3:	c3                   	retq   

00000000004018f4 <getval_349>:
  4018f4:	b8 48 89 e0 90       	mov    $0x90e08948,%eax
  4018f9:	c3                   	retq   

00000000004018fa <getval_231>:
  4018fa:	b8 7c 89 c1 92       	mov    $0x92c1897c,%eax
  4018ff:	c3                   	retq   

0000000000401900 <addval_275>:
  401900:	8d 87 81 d6 38 db    	lea    -0x24c7297f(%rdi),%eax
  401906:	c3                   	retq   

0000000000401907 <getval_311>:
  401907:	b8 89 d6 28 d2       	mov    $0xd228d689,%eax
  40190c:	c3                   	retq   

000000000040190d <setval_441>:
  40190d:	c7 07 89 ca 08 c9    	movl   $0xc908ca89,(%rdi)
  401913:	c3                   	retq   

0000000000401914 <getval_382>:
  401914:	b8 89 ca 48 d2       	mov    $0xd248ca89,%eax
  401919:	c3                   	retq   

000000000040191a <setval_184>:
  40191a:	c7 07 89 ca a4 d2    	movl   $0xd2a4ca89,(%rdi)
  401920:	c3                   	retq   

0000000000401921 <getval_377>:
  401921:	b8 88 c1 20 db       	mov    $0xdb20c188,%eax
  401926:	c3                   	retq   

0000000000401927 <addval_263>:
  401927:	8d 87 89 ca 20 c0    	lea    -0x3fdf3577(%rdi),%eax
  40192d:	c3                   	retq   

000000000040192e <end_farm>:
  40192e:	b8 01 00 00 00       	mov    $0x1,%eax
  401933:	c3                   	retq   

0000000000401934 <save_char>:
  401934:	8b 05 4a 3a 20 00    	mov    0x203a4a(%rip),%eax        # 605384 <gets_cnt>
  40193a:	3d ff 03 00 00       	cmp    $0x3ff,%eax
  40193f:	7f 49                	jg     40198a <save_char+0x56>
  401941:	8d 14 40             	lea    (%rax,%rax,2),%edx
  401944:	89 f9                	mov    %edi,%ecx
  401946:	c0 e9 04             	shr    $0x4,%cl
  401949:	83 e1 0f             	and    $0xf,%ecx
  40194c:	0f b6 b1 a0 32 40 00 	movzbl 0x4032a0(%rcx),%esi
  401953:	48 63 ca             	movslq %edx,%rcx
  401956:	40 88 b1 80 47 60 00 	mov    %sil,0x604780(%rcx)
  40195d:	8d 4a 01             	lea    0x1(%rdx),%ecx
  401960:	83 e7 0f             	and    $0xf,%edi
  401963:	0f b6 b7 a0 32 40 00 	movzbl 0x4032a0(%rdi),%esi
  40196a:	48 63 c9             	movslq %ecx,%rcx
  40196d:	40 88 b1 80 47 60 00 	mov    %sil,0x604780(%rcx)
  401974:	83 c2 02             	add    $0x2,%edx
  401977:	48 63 d2             	movslq %edx,%rdx
  40197a:	c6 82 80 47 60 00 20 	movb   $0x20,0x604780(%rdx)
  401981:	83 c0 01             	add    $0x1,%eax
  401984:	89 05 fa 39 20 00    	mov    %eax,0x2039fa(%rip)        # 605384 <gets_cnt>
  40198a:	f3 c3                	repz retq 

000000000040198c <save_term>:
  40198c:	8b 05 f2 39 20 00    	mov    0x2039f2(%rip),%eax        # 605384 <gets_cnt>
  401992:	8d 04 40             	lea    (%rax,%rax,2),%eax
  401995:	48 98                	cltq   
  401997:	c6 80 80 47 60 00 00 	movb   $0x0,0x604780(%rax)
  40199e:	c3                   	retq   

000000000040199f <check_fail>:
  40199f:	48 83 ec 08          	sub    $0x8,%rsp
  4019a3:	0f be 35 de 39 20 00 	movsbl 0x2039de(%rip),%esi        # 605388 <target_prefix>
  4019aa:	b9 80 47 60 00       	mov    $0x604780,%ecx
  4019af:	8b 15 a3 2d 20 00    	mov    0x202da3(%rip),%edx        # 604758 <check_level>
  4019b5:	bf 9b 2f 40 00       	mov    $0x402f9b,%edi
  4019ba:	b8 00 00 00 00       	mov    $0x0,%eax
  4019bf:	e8 ec f1 ff ff       	callq  400bb0 <printf@plt>
  4019c4:	bf 01 00 00 00       	mov    $0x1,%edi
  4019c9:	e8 42 f3 ff ff       	callq  400d10 <exit@plt>

00000000004019ce <Gets>:
  4019ce:	41 54                	push   %r12
  4019d0:	55                   	push   %rbp
  4019d1:	53                   	push   %rbx
  4019d2:	49 89 fc             	mov    %rdi,%r12
  4019d5:	c7 05 a5 39 20 00 00 	movl   $0x0,0x2039a5(%rip)        # 605384 <gets_cnt>
  4019dc:	00 00 00 
  4019df:	48 89 fb             	mov    %rdi,%rbx
  4019e2:	eb 11                	jmp    4019f5 <Gets+0x27>
  4019e4:	48 8d 6b 01          	lea    0x1(%rbx),%rbp
  4019e8:	88 03                	mov    %al,(%rbx)
  4019ea:	0f b6 f8             	movzbl %al,%edi
  4019ed:	e8 42 ff ff ff       	callq  401934 <save_char>
  4019f2:	48 89 eb             	mov    %rbp,%rbx
  4019f5:	48 8b 3d 54 2d 20 00 	mov    0x202d54(%rip),%rdi        # 604750 <infile>
  4019fc:	e8 8f f2 ff ff       	callq  400c90 <_IO_getc@plt>
  401a01:	83 f8 ff             	cmp    $0xffffffff,%eax
  401a04:	74 05                	je     401a0b <Gets+0x3d>
  401a06:	83 f8 0a             	cmp    $0xa,%eax
  401a09:	75 d9                	jne    4019e4 <Gets+0x16>
  401a0b:	c6 03 00             	movb   $0x0,(%rbx)
  401a0e:	b8 00 00 00 00       	mov    $0x0,%eax
  401a13:	e8 74 ff ff ff       	callq  40198c <save_term>
  401a18:	4c 89 e0             	mov    %r12,%rax
  401a1b:	5b                   	pop    %rbx
  401a1c:	5d                   	pop    %rbp
  401a1d:	41 5c                	pop    %r12
  401a1f:	c3                   	retq   

0000000000401a20 <notify_server>:
  401a20:	83 3d 41 2d 20 00 00 	cmpl   $0x0,0x202d41(%rip)        # 604768 <is_checker>
  401a27:	0f 85 87 01 00 00    	jne    401bb4 <notify_server+0x194>
  401a2d:	53                   	push   %rbx
  401a2e:	48 81 ec 00 40 00 00 	sub    $0x4000,%rsp
  401a35:	89 fb                	mov    %edi,%ebx
  401a37:	8b 05 47 39 20 00    	mov    0x203947(%rip),%eax        # 605384 <gets_cnt>
  401a3d:	83 c0 64             	add    $0x64,%eax
  401a40:	3d 00 20 00 00       	cmp    $0x2000,%eax
  401a45:	7e 19                	jle    401a60 <notify_server+0x40>
  401a47:	bf d0 30 40 00       	mov    $0x4030d0,%edi
  401a4c:	b8 00 00 00 00       	mov    $0x0,%eax
  401a51:	e8 5a f1 ff ff       	callq  400bb0 <printf@plt>
  401a56:	bf 01 00 00 00       	mov    $0x1,%edi
  401a5b:	e8 b0 f2 ff ff       	callq  400d10 <exit@plt>
  401a60:	44 0f be 0d 20 39 20 	movsbl 0x203920(%rip),%r9d        # 605388 <target_prefix>
  401a67:	00 
  401a68:	83 3d 79 2c 20 00 00 	cmpl   $0x0,0x202c79(%rip)        # 6046e8 <notify>
  401a6f:	74 09                	je     401a7a <notify_server+0x5a>
  401a71:	44 8b 05 e8 2c 20 00 	mov    0x202ce8(%rip),%r8d        # 604760 <authkey>
  401a78:	eb 06                	jmp    401a80 <notify_server+0x60>
  401a7a:	41 b8 ff ff ff ff    	mov    $0xffffffff,%r8d
  401a80:	85 db                	test   %ebx,%ebx
  401a82:	74 07                	je     401a8b <notify_server+0x6b>
  401a84:	b9 b1 2f 40 00       	mov    $0x402fb1,%ecx
  401a89:	eb 05                	jmp    401a90 <notify_server+0x70>
  401a8b:	b9 b6 2f 40 00       	mov    $0x402fb6,%ecx
  401a90:	68 80 47 60 00       	pushq  $0x604780
  401a95:	56                   	push   %rsi
  401a96:	8b 15 ec 28 20 00    	mov    0x2028ec(%rip),%edx        # 604388 <target_id>
  401a9c:	be bb 2f 40 00       	mov    $0x402fbb,%esi
  401aa1:	48 8d bc 24 10 20 00 	lea    0x2010(%rsp),%rdi
  401aa8:	00 
  401aa9:	b8 00 00 00 00       	mov    $0x0,%eax
  401aae:	e8 4d f2 ff ff       	callq  400d00 <sprintf@plt>
  401ab3:	48 83 c4 10          	add    $0x10,%rsp
  401ab7:	83 3d 2a 2c 20 00 00 	cmpl   $0x0,0x202c2a(%rip)        # 6046e8 <notify>
  401abe:	74 74                	je     401b34 <notify_server+0x114>
  401ac0:	85 db                	test   %ebx,%ebx
  401ac2:	74 64                	je     401b28 <notify_server+0x108>
  401ac4:	49 89 e1             	mov    %rsp,%r9
  401ac7:	41 b8 00 00 00 00    	mov    $0x0,%r8d
  401acd:	48 8d 8c 24 00 20 00 	lea    0x2000(%rsp),%rcx
  401ad4:	00 
  401ad5:	48 8b 15 b4 28 20 00 	mov    0x2028b4(%rip),%rdx        # 604390 <lab>
  401adc:	48 8b 35 b5 28 20 00 	mov    0x2028b5(%rip),%rsi        # 604398 <course>
  401ae3:	48 8b 3d 96 28 20 00 	mov    0x202896(%rip),%rdi        # 604380 <user_id>
  401aea:	e8 b1 0f 00 00       	callq  402aa0 <driver_post>
  401aef:	85 c0                	test   %eax,%eax
  401af1:	79 1c                	jns    401b0f <notify_server+0xef>
  401af3:	48 89 e6             	mov    %rsp,%rsi
  401af6:	bf d7 2f 40 00       	mov    $0x402fd7,%edi
  401afb:	b8 00 00 00 00       	mov    $0x0,%eax
  401b00:	e8 ab f0 ff ff       	callq  400bb0 <printf@plt>
  401b05:	bf 01 00 00 00       	mov    $0x1,%edi
  401b0a:	e8 01 f2 ff ff       	callq  400d10 <exit@plt>
  401b0f:	bf 00 31 40 00       	mov    $0x403100,%edi
  401b14:	e8 67 f0 ff ff       	callq  400b80 <puts@plt>
  401b19:	bf e3 2f 40 00       	mov    $0x402fe3,%edi
  401b1e:	e8 5d f0 ff ff       	callq  400b80 <puts@plt>
  401b23:	e9 84 00 00 00       	jmpq   401bac <notify_server+0x18c>
  401b28:	bf ed 2f 40 00       	mov    $0x402fed,%edi
  401b2d:	e8 4e f0 ff ff       	callq  400b80 <puts@plt>
  401b32:	eb 78                	jmp    401bac <notify_server+0x18c>
  401b34:	85 db                	test   %ebx,%ebx
  401b36:	74 07                	je     401b3f <notify_server+0x11f>
  401b38:	be b1 2f 40 00       	mov    $0x402fb1,%esi
  401b3d:	eb 05                	jmp    401b44 <notify_server+0x124>
  401b3f:	be b6 2f 40 00       	mov    $0x402fb6,%esi
  401b44:	bf 38 31 40 00       	mov    $0x403138,%edi
  401b49:	b8 00 00 00 00       	mov    $0x0,%eax
  401b4e:	e8 5d f0 ff ff       	callq  400bb0 <printf@plt>
  401b53:	48 8b 35 26 28 20 00 	mov    0x202826(%rip),%rsi        # 604380 <user_id>
  401b5a:	bf f4 2f 40 00       	mov    $0x402ff4,%edi
  401b5f:	b8 00 00 00 00       	mov    $0x0,%eax
  401b64:	e8 47 f0 ff ff       	callq  400bb0 <printf@plt>
  401b69:	48 8b 35 28 28 20 00 	mov    0x202828(%rip),%rsi        # 604398 <course>
  401b70:	bf 01 30 40 00       	mov    $0x403001,%edi
  401b75:	b8 00 00 00 00       	mov    $0x0,%eax
  401b7a:	e8 31 f0 ff ff       	callq  400bb0 <printf@plt>
  401b7f:	48 8b 35 0a 28 20 00 	mov    0x20280a(%rip),%rsi        # 604390 <lab>
  401b86:	bf 0d 30 40 00       	mov    $0x40300d,%edi
  401b8b:	b8 00 00 00 00       	mov    $0x0,%eax
  401b90:	e8 1b f0 ff ff       	callq  400bb0 <printf@plt>
  401b95:	48 8d b4 24 00 20 00 	lea    0x2000(%rsp),%rsi
  401b9c:	00 
  401b9d:	bf 16 30 40 00       	mov    $0x403016,%edi
  401ba2:	b8 00 00 00 00       	mov    $0x0,%eax
  401ba7:	e8 04 f0 ff ff       	callq  400bb0 <printf@plt>
  401bac:	48 81 c4 00 40 00 00 	add    $0x4000,%rsp
  401bb3:	5b                   	pop    %rbx
  401bb4:	f3 c3                	repz retq 

0000000000401bb6 <validate>:
  401bb6:	53                   	push   %rbx
  401bb7:	89 fb                	mov    %edi,%ebx
  401bb9:	83 3d a8 2b 20 00 00 	cmpl   $0x0,0x202ba8(%rip)        # 604768 <is_checker>
  401bc0:	74 60                	je     401c22 <validate+0x6c>
  401bc2:	39 3d 94 2b 20 00    	cmp    %edi,0x202b94(%rip)        # 60475c <vlevel>
  401bc8:	74 14                	je     401bde <validate+0x28>
  401bca:	bf 22 30 40 00       	mov    $0x403022,%edi
  401bcf:	e8 ac ef ff ff       	callq  400b80 <puts@plt>
  401bd4:	b8 00 00 00 00       	mov    $0x0,%eax
  401bd9:	e8 c1 fd ff ff       	callq  40199f <check_fail>
  401bde:	8b 35 74 2b 20 00    	mov    0x202b74(%rip),%esi        # 604758 <check_level>
  401be4:	39 fe                	cmp    %edi,%esi
  401be6:	74 1b                	je     401c03 <validate+0x4d>
  401be8:	89 fa                	mov    %edi,%edx
  401bea:	bf 60 31 40 00       	mov    $0x403160,%edi
  401bef:	b8 00 00 00 00       	mov    $0x0,%eax
  401bf4:	e8 b7 ef ff ff       	callq  400bb0 <printf@plt>
  401bf9:	b8 00 00 00 00       	mov    $0x0,%eax
  401bfe:	e8 9c fd ff ff       	callq  40199f <check_fail>
  401c03:	0f be 35 7e 37 20 00 	movsbl 0x20377e(%rip),%esi        # 605388 <target_prefix>
  401c0a:	b9 80 47 60 00       	mov    $0x604780,%ecx
  401c0f:	89 fa                	mov    %edi,%edx
  401c11:	bf 40 30 40 00       	mov    $0x403040,%edi
  401c16:	b8 00 00 00 00       	mov    $0x0,%eax
  401c1b:	e8 90 ef ff ff       	callq  400bb0 <printf@plt>
  401c20:	eb 44                	jmp    401c66 <validate+0xb0>
  401c22:	39 3d 34 2b 20 00    	cmp    %edi,0x202b34(%rip)        # 60475c <vlevel>
  401c28:	74 18                	je     401c42 <validate+0x8c>
  401c2a:	bf 22 30 40 00       	mov    $0x403022,%edi
  401c2f:	e8 4c ef ff ff       	callq  400b80 <puts@plt>
  401c34:	89 de                	mov    %ebx,%esi
  401c36:	bf 00 00 00 00       	mov    $0x0,%edi
  401c3b:	e8 e0 fd ff ff       	callq  401a20 <notify_server>
  401c40:	eb 24                	jmp    401c66 <validate+0xb0>
  401c42:	0f be 15 3f 37 20 00 	movsbl 0x20373f(%rip),%edx        # 605388 <target_prefix>
  401c49:	89 fe                	mov    %edi,%esi
  401c4b:	bf 88 31 40 00       	mov    $0x403188,%edi
  401c50:	b8 00 00 00 00       	mov    $0x0,%eax
  401c55:	e8 56 ef ff ff       	callq  400bb0 <printf@plt>
  401c5a:	89 de                	mov    %ebx,%esi
  401c5c:	bf 01 00 00 00       	mov    $0x1,%edi
  401c61:	e8 ba fd ff ff       	callq  401a20 <notify_server>
  401c66:	5b                   	pop    %rbx
  401c67:	c3                   	retq   

0000000000401c68 <fail>:
  401c68:	48 83 ec 08          	sub    $0x8,%rsp
  401c6c:	83 3d f5 2a 20 00 00 	cmpl   $0x0,0x202af5(%rip)        # 604768 <is_checker>
  401c73:	74 0a                	je     401c7f <fail+0x17>
  401c75:	b8 00 00 00 00       	mov    $0x0,%eax
  401c7a:	e8 20 fd ff ff       	callq  40199f <check_fail>
  401c7f:	89 fe                	mov    %edi,%esi
  401c81:	bf 00 00 00 00       	mov    $0x0,%edi
  401c86:	e8 95 fd ff ff       	callq  401a20 <notify_server>
  401c8b:	48 83 c4 08          	add    $0x8,%rsp
  401c8f:	c3                   	retq   

0000000000401c90 <bushandler>:
  401c90:	48 83 ec 08          	sub    $0x8,%rsp
  401c94:	83 3d cd 2a 20 00 00 	cmpl   $0x0,0x202acd(%rip)        # 604768 <is_checker>
  401c9b:	74 14                	je     401cb1 <bushandler+0x21>
  401c9d:	bf 55 30 40 00       	mov    $0x403055,%edi
  401ca2:	e8 d9 ee ff ff       	callq  400b80 <puts@plt>
  401ca7:	b8 00 00 00 00       	mov    $0x0,%eax
  401cac:	e8 ee fc ff ff       	callq  40199f <check_fail>
  401cb1:	bf c0 31 40 00       	mov    $0x4031c0,%edi
  401cb6:	e8 c5 ee ff ff       	callq  400b80 <puts@plt>
  401cbb:	bf 5f 30 40 00       	mov    $0x40305f,%edi
  401cc0:	e8 bb ee ff ff       	callq  400b80 <puts@plt>
  401cc5:	be 00 00 00 00       	mov    $0x0,%esi
  401cca:	bf 00 00 00 00       	mov    $0x0,%edi
  401ccf:	e8 4c fd ff ff       	callq  401a20 <notify_server>
  401cd4:	bf 01 00 00 00       	mov    $0x1,%edi
  401cd9:	e8 32 f0 ff ff       	callq  400d10 <exit@plt>

0000000000401cde <seghandler>:
  401cde:	48 83 ec 08          	sub    $0x8,%rsp
  401ce2:	83 3d 7f 2a 20 00 00 	cmpl   $0x0,0x202a7f(%rip)        # 604768 <is_checker>
  401ce9:	74 14                	je     401cff <seghandler+0x21>
  401ceb:	bf 75 30 40 00       	mov    $0x403075,%edi
  401cf0:	e8 8b ee ff ff       	callq  400b80 <puts@plt>
  401cf5:	b8 00 00 00 00       	mov    $0x0,%eax
  401cfa:	e8 a0 fc ff ff       	callq  40199f <check_fail>
  401cff:	bf e0 31 40 00       	mov    $0x4031e0,%edi
  401d04:	e8 77 ee ff ff       	callq  400b80 <puts@plt>
  401d09:	bf 5f 30 40 00       	mov    $0x40305f,%edi
  401d0e:	e8 6d ee ff ff       	callq  400b80 <puts@plt>
  401d13:	be 00 00 00 00       	mov    $0x0,%esi
  401d18:	bf 00 00 00 00       	mov    $0x0,%edi
  401d1d:	e8 fe fc ff ff       	callq  401a20 <notify_server>
  401d22:	bf 01 00 00 00       	mov    $0x1,%edi
  401d27:	e8 e4 ef ff ff       	callq  400d10 <exit@plt>

0000000000401d2c <illegalhandler>:
  401d2c:	48 83 ec 08          	sub    $0x8,%rsp
  401d30:	83 3d 31 2a 20 00 00 	cmpl   $0x0,0x202a31(%rip)        # 604768 <is_checker>
  401d37:	74 14                	je     401d4d <illegalhandler+0x21>
  401d39:	bf 88 30 40 00       	mov    $0x403088,%edi
  401d3e:	e8 3d ee ff ff       	callq  400b80 <puts@plt>
  401d43:	b8 00 00 00 00       	mov    $0x0,%eax
  401d48:	e8 52 fc ff ff       	callq  40199f <check_fail>
  401d4d:	bf 08 32 40 00       	mov    $0x403208,%edi
  401d52:	e8 29 ee ff ff       	callq  400b80 <puts@plt>
  401d57:	bf 5f 30 40 00       	mov    $0x40305f,%edi
  401d5c:	e8 1f ee ff ff       	callq  400b80 <puts@plt>
  401d61:	be 00 00 00 00       	mov    $0x0,%esi
  401d66:	bf 00 00 00 00       	mov    $0x0,%edi
  401d6b:	e8 b0 fc ff ff       	callq  401a20 <notify_server>
  401d70:	bf 01 00 00 00       	mov    $0x1,%edi
  401d75:	e8 96 ef ff ff       	callq  400d10 <exit@plt>

0000000000401d7a <sigalrmhandler>:
  401d7a:	48 83 ec 08          	sub    $0x8,%rsp
  401d7e:	83 3d e3 29 20 00 00 	cmpl   $0x0,0x2029e3(%rip)        # 604768 <is_checker>
  401d85:	74 14                	je     401d9b <sigalrmhandler+0x21>
  401d87:	bf 9c 30 40 00       	mov    $0x40309c,%edi
  401d8c:	e8 ef ed ff ff       	callq  400b80 <puts@plt>
  401d91:	b8 00 00 00 00       	mov    $0x0,%eax
  401d96:	e8 04 fc ff ff       	callq  40199f <check_fail>
  401d9b:	be 05 00 00 00       	mov    $0x5,%esi
  401da0:	bf 38 32 40 00       	mov    $0x403238,%edi
  401da5:	b8 00 00 00 00       	mov    $0x0,%eax
  401daa:	e8 01 ee ff ff       	callq  400bb0 <printf@plt>
  401daf:	be 00 00 00 00       	mov    $0x0,%esi
  401db4:	bf 00 00 00 00       	mov    $0x0,%edi
  401db9:	e8 62 fc ff ff       	callq  401a20 <notify_server>
  401dbe:	bf 01 00 00 00       	mov    $0x1,%edi
  401dc3:	e8 48 ef ff ff       	callq  400d10 <exit@plt>

0000000000401dc8 <launch>:
  401dc8:	55                   	push   %rbp
  401dc9:	48 89 e5             	mov    %rsp,%rbp
  401dcc:	48 89 fa             	mov    %rdi,%rdx
  401dcf:	48 8d 47 1e          	lea    0x1e(%rdi),%rax
  401dd3:	48 83 e0 f0          	and    $0xfffffffffffffff0,%rax
  401dd7:	48 29 c4             	sub    %rax,%rsp
  401dda:	48 8d 44 24 0f       	lea    0xf(%rsp),%rax
  401ddf:	48 83 e0 f0          	and    $0xfffffffffffffff0,%rax
  401de3:	48 89 c7             	mov    %rax,%rdi
  401de6:	be f4 00 00 00       	mov    $0xf4,%esi
  401deb:	e8 d0 ed ff ff       	callq  400bc0 <memset@plt>
  401df0:	48 8b 05 09 29 20 00 	mov    0x202909(%rip),%rax        # 604700 <stdin@@GLIBC_2.2.5>
  401df7:	48 39 05 52 29 20 00 	cmp    %rax,0x202952(%rip)        # 604750 <infile>
  401dfe:	75 0f                	jne    401e0f <launch+0x47>
  401e00:	bf a4 30 40 00       	mov    $0x4030a4,%edi
  401e05:	b8 00 00 00 00       	mov    $0x0,%eax
  401e0a:	e8 a1 ed ff ff       	callq  400bb0 <printf@plt>
  401e0f:	c7 05 43 29 20 00 00 	movl   $0x0,0x202943(%rip)        # 60475c <vlevel>
  401e16:	00 00 00 
  401e19:	b8 00 00 00 00       	mov    $0x0,%eax
  401e1e:	e8 cf f9 ff ff       	callq  4017f2 <test>
  401e23:	83 3d 3e 29 20 00 00 	cmpl   $0x0,0x20293e(%rip)        # 604768 <is_checker>
  401e2a:	74 14                	je     401e40 <launch+0x78>
  401e2c:	bf b1 30 40 00       	mov    $0x4030b1,%edi
  401e31:	e8 4a ed ff ff       	callq  400b80 <puts@plt>
  401e36:	b8 00 00 00 00       	mov    $0x0,%eax
  401e3b:	e8 5f fb ff ff       	callq  40199f <check_fail>
  401e40:	bf bc 30 40 00       	mov    $0x4030bc,%edi
  401e45:	e8 36 ed ff ff       	callq  400b80 <puts@plt>
  401e4a:	c9                   	leaveq 
  401e4b:	c3                   	retq   

0000000000401e4c <stable_launch>:
  401e4c:	53                   	push   %rbx
  401e4d:	48 89 3d f4 28 20 00 	mov    %rdi,0x2028f4(%rip)        # 604748 <global_offset>
  401e54:	41 b9 00 00 00 00    	mov    $0x0,%r9d
  401e5a:	41 b8 00 00 00 00    	mov    $0x0,%r8d
  401e60:	b9 32 01 00 00       	mov    $0x132,%ecx
  401e65:	ba 07 00 00 00       	mov    $0x7,%edx
  401e6a:	be 00 00 10 00       	mov    $0x100000,%esi
  401e6f:	bf 00 60 58 55       	mov    $0x55586000,%edi
  401e74:	e8 27 ed ff ff       	callq  400ba0 <mmap@plt>
  401e79:	48 89 c3             	mov    %rax,%rbx
  401e7c:	48 3d 00 60 58 55    	cmp    $0x55586000,%rax
  401e82:	74 32                	je     401eb6 <stable_launch+0x6a>
  401e84:	be 00 00 10 00       	mov    $0x100000,%esi
  401e89:	48 89 c7             	mov    %rax,%rdi
  401e8c:	e8 1f ee ff ff       	callq  400cb0 <munmap@plt>
  401e91:	ba 00 60 58 55       	mov    $0x55586000,%edx
  401e96:	be 70 32 40 00       	mov    $0x403270,%esi
  401e9b:	48 8b 3d 6e 28 20 00 	mov    0x20286e(%rip),%rdi        # 604710 <stderr@@GLIBC_2.2.5>
  401ea2:	b8 00 00 00 00       	mov    $0x0,%eax
  401ea7:	e8 84 ed ff ff       	callq  400c30 <fprintf@plt>
  401eac:	bf 01 00 00 00       	mov    $0x1,%edi
  401eb1:	e8 5a ee ff ff       	callq  400d10 <exit@plt>
  401eb6:	48 8d 90 f8 ff 0f 00 	lea    0xffff8(%rax),%rdx
  401ebd:	48 89 15 cc 34 20 00 	mov    %rdx,0x2034cc(%rip)        # 605390 <stack_top>
  401ec4:	48 89 e0             	mov    %rsp,%rax
  401ec7:	48 89 d4             	mov    %rdx,%rsp
  401eca:	48 89 c2             	mov    %rax,%rdx
  401ecd:	48 89 15 6c 28 20 00 	mov    %rdx,0x20286c(%rip)        # 604740 <global_save_stack>
  401ed4:	48 8b 3d 6d 28 20 00 	mov    0x20286d(%rip),%rdi        # 604748 <global_offset>
  401edb:	e8 e8 fe ff ff       	callq  401dc8 <launch>
  401ee0:	48 8b 05 59 28 20 00 	mov    0x202859(%rip),%rax        # 604740 <global_save_stack>
  401ee7:	48 89 c4             	mov    %rax,%rsp
  401eea:	be 00 00 10 00       	mov    $0x100000,%esi
  401eef:	48 89 df             	mov    %rbx,%rdi
  401ef2:	e8 b9 ed ff ff       	callq  400cb0 <munmap@plt>
  401ef7:	5b                   	pop    %rbx
  401ef8:	c3                   	retq   

0000000000401ef9 <rio_readinitb>:
  401ef9:	89 37                	mov    %esi,(%rdi)
  401efb:	c7 47 04 00 00 00 00 	movl   $0x0,0x4(%rdi)
  401f02:	48 8d 47 10          	lea    0x10(%rdi),%rax
  401f06:	48 89 47 08          	mov    %rax,0x8(%rdi)
  401f0a:	c3                   	retq   

0000000000401f0b <sigalrm_handler>:
  401f0b:	48 83 ec 08          	sub    $0x8,%rsp
  401f0f:	ba 00 00 00 00       	mov    $0x0,%edx
  401f14:	be b0 32 40 00       	mov    $0x4032b0,%esi
  401f19:	48 8b 3d f0 27 20 00 	mov    0x2027f0(%rip),%rdi        # 604710 <stderr@@GLIBC_2.2.5>
  401f20:	b8 00 00 00 00       	mov    $0x0,%eax
  401f25:	e8 06 ed ff ff       	callq  400c30 <fprintf@plt>
  401f2a:	bf 01 00 00 00       	mov    $0x1,%edi
  401f2f:	e8 dc ed ff ff       	callq  400d10 <exit@plt>

0000000000401f34 <urlencode>:
  401f34:	41 54                	push   %r12
  401f36:	55                   	push   %rbp
  401f37:	53                   	push   %rbx
  401f38:	48 83 ec 10          	sub    $0x10,%rsp
  401f3c:	48 89 fb             	mov    %rdi,%rbx
  401f3f:	48 89 f5             	mov    %rsi,%rbp
  401f42:	b8 00 00 00 00       	mov    $0x0,%eax
  401f47:	48 c7 c1 ff ff ff ff 	mov    $0xffffffffffffffff,%rcx
  401f4e:	f2 ae                	repnz scas %es:(%rdi),%al
  401f50:	48 f7 d1             	not    %rcx
  401f53:	8d 41 ff             	lea    -0x1(%rcx),%eax
  401f56:	e9 93 00 00 00       	jmpq   401fee <urlencode+0xba>
  401f5b:	0f b6 13             	movzbl (%rbx),%edx
  401f5e:	80 fa 2a             	cmp    $0x2a,%dl
  401f61:	0f 94 c1             	sete   %cl
  401f64:	80 fa 2d             	cmp    $0x2d,%dl
  401f67:	0f 94 c0             	sete   %al
  401f6a:	08 c1                	or     %al,%cl
  401f6c:	75 1f                	jne    401f8d <urlencode+0x59>
  401f6e:	80 fa 2e             	cmp    $0x2e,%dl
  401f71:	74 1a                	je     401f8d <urlencode+0x59>
  401f73:	80 fa 5f             	cmp    $0x5f,%dl
  401f76:	74 15                	je     401f8d <urlencode+0x59>
  401f78:	8d 42 d0             	lea    -0x30(%rdx),%eax
  401f7b:	3c 09                	cmp    $0x9,%al
  401f7d:	76 0e                	jbe    401f8d <urlencode+0x59>
  401f7f:	8d 42 bf             	lea    -0x41(%rdx),%eax
  401f82:	3c 19                	cmp    $0x19,%al
  401f84:	76 07                	jbe    401f8d <urlencode+0x59>
  401f86:	8d 42 9f             	lea    -0x61(%rdx),%eax
  401f89:	3c 19                	cmp    $0x19,%al
  401f8b:	77 09                	ja     401f96 <urlencode+0x62>
  401f8d:	88 55 00             	mov    %dl,0x0(%rbp)
  401f90:	48 8d 6d 01          	lea    0x1(%rbp),%rbp
  401f94:	eb 51                	jmp    401fe7 <urlencode+0xb3>
  401f96:	80 fa 20             	cmp    $0x20,%dl
  401f99:	75 0a                	jne    401fa5 <urlencode+0x71>
  401f9b:	c6 45 00 2b          	movb   $0x2b,0x0(%rbp)
  401f9f:	48 8d 6d 01          	lea    0x1(%rbp),%rbp
  401fa3:	eb 42                	jmp    401fe7 <urlencode+0xb3>
  401fa5:	8d 42 e0             	lea    -0x20(%rdx),%eax
  401fa8:	3c 5f                	cmp    $0x5f,%al
  401faa:	0f 96 c1             	setbe  %cl
  401fad:	80 fa 09             	cmp    $0x9,%dl
  401fb0:	0f 94 c0             	sete   %al
  401fb3:	08 c1                	or     %al,%cl
  401fb5:	74 45                	je     401ffc <urlencode+0xc8>
  401fb7:	0f b6 d2             	movzbl %dl,%edx
  401fba:	be 50 33 40 00       	mov    $0x403350,%esi
  401fbf:	48 89 e7             	mov    %rsp,%rdi
  401fc2:	b8 00 00 00 00       	mov    $0x0,%eax
  401fc7:	e8 34 ed ff ff       	callq  400d00 <sprintf@plt>
  401fcc:	0f b6 04 24          	movzbl (%rsp),%eax
  401fd0:	88 45 00             	mov    %al,0x0(%rbp)
  401fd3:	0f b6 44 24 01       	movzbl 0x1(%rsp),%eax
  401fd8:	88 45 01             	mov    %al,0x1(%rbp)
  401fdb:	0f b6 44 24 02       	movzbl 0x2(%rsp),%eax
  401fe0:	88 45 02             	mov    %al,0x2(%rbp)
  401fe3:	48 8d 6d 03          	lea    0x3(%rbp),%rbp
  401fe7:	48 83 c3 01          	add    $0x1,%rbx
  401feb:	44 89 e0             	mov    %r12d,%eax
  401fee:	44 8d 60 ff          	lea    -0x1(%rax),%r12d
  401ff2:	85 c0                	test   %eax,%eax
  401ff4:	0f 85 61 ff ff ff    	jne    401f5b <urlencode+0x27>
  401ffa:	eb 05                	jmp    402001 <urlencode+0xcd>
  401ffc:	b8 ff ff ff ff       	mov    $0xffffffff,%eax
  402001:	48 83 c4 10          	add    $0x10,%rsp
  402005:	5b                   	pop    %rbx
  402006:	5d                   	pop    %rbp
  402007:	41 5c                	pop    %r12
  402009:	c3                   	retq   

000000000040200a <rio_writen>:
  40200a:	41 55                	push   %r13
  40200c:	41 54                	push   %r12
  40200e:	55                   	push   %rbp
  40200f:	53                   	push   %rbx
  402010:	48 83 ec 08          	sub    $0x8,%rsp
  402014:	41 89 fc             	mov    %edi,%r12d
  402017:	48 89 f5             	mov    %rsi,%rbp
  40201a:	49 89 d5             	mov    %rdx,%r13
  40201d:	48 89 d3             	mov    %rdx,%rbx
  402020:	eb 28                	jmp    40204a <rio_writen+0x40>
  402022:	48 89 da             	mov    %rbx,%rdx
  402025:	48 89 ee             	mov    %rbp,%rsi
  402028:	44 89 e7             	mov    %r12d,%edi
  40202b:	e8 60 eb ff ff       	callq  400b90 <write@plt>
  402030:	48 85 c0             	test   %rax,%rax
  402033:	7f 0f                	jg     402044 <rio_writen+0x3a>
  402035:	e8 06 eb ff ff       	callq  400b40 <__errno_location@plt>
  40203a:	83 38 04             	cmpl   $0x4,(%rax)
  40203d:	75 15                	jne    402054 <rio_writen+0x4a>
  40203f:	b8 00 00 00 00       	mov    $0x0,%eax
  402044:	48 29 c3             	sub    %rax,%rbx
  402047:	48 01 c5             	add    %rax,%rbp
  40204a:	48 85 db             	test   %rbx,%rbx
  40204d:	75 d3                	jne    402022 <rio_writen+0x18>
  40204f:	4c 89 e8             	mov    %r13,%rax
  402052:	eb 07                	jmp    40205b <rio_writen+0x51>
  402054:	48 c7 c0 ff ff ff ff 	mov    $0xffffffffffffffff,%rax
  40205b:	48 83 c4 08          	add    $0x8,%rsp
  40205f:	5b                   	pop    %rbx
  402060:	5d                   	pop    %rbp
  402061:	41 5c                	pop    %r12
  402063:	41 5d                	pop    %r13
  402065:	c3                   	retq   

0000000000402066 <rio_read>:
  402066:	41 56                	push   %r14
  402068:	41 55                	push   %r13
  40206a:	41 54                	push   %r12
  40206c:	55                   	push   %rbp
  40206d:	53                   	push   %rbx
  40206e:	48 89 fb             	mov    %rdi,%rbx
  402071:	49 89 f5             	mov    %rsi,%r13
  402074:	49 89 d4             	mov    %rdx,%r12
  402077:	eb 2e                	jmp    4020a7 <rio_read+0x41>
  402079:	48 8d 6b 10          	lea    0x10(%rbx),%rbp
  40207d:	ba 00 20 00 00       	mov    $0x2000,%edx
  402082:	48 89 ee             	mov    %rbp,%rsi
  402085:	8b 3b                	mov    (%rbx),%edi
  402087:	e8 64 eb ff ff       	callq  400bf0 <read@plt>
  40208c:	89 43 04             	mov    %eax,0x4(%rbx)
  40208f:	85 c0                	test   %eax,%eax
  402091:	79 0c                	jns    40209f <rio_read+0x39>
  402093:	e8 a8 ea ff ff       	callq  400b40 <__errno_location@plt>
  402098:	83 38 04             	cmpl   $0x4,(%rax)
  40209b:	74 0a                	je     4020a7 <rio_read+0x41>
  40209d:	eb 3b                	jmp    4020da <rio_read+0x74>
  40209f:	85 c0                	test   %eax,%eax
  4020a1:	74 40                	je     4020e3 <rio_read+0x7d>
  4020a3:	48 89 6b 08          	mov    %rbp,0x8(%rbx)
  4020a7:	8b 43 04             	mov    0x4(%rbx),%eax
  4020aa:	85 c0                	test   %eax,%eax
  4020ac:	7e cb                	jle    402079 <rio_read+0x13>
  4020ae:	45 89 e6             	mov    %r12d,%r14d
  4020b1:	89 c2                	mov    %eax,%edx
  4020b3:	4c 39 e2             	cmp    %r12,%rdx
  4020b6:	73 03                	jae    4020bb <rio_read+0x55>
  4020b8:	41 89 c6             	mov    %eax,%r14d
  4020bb:	49 63 ee             	movslq %r14d,%rbp
  4020be:	48 8b 73 08          	mov    0x8(%rbx),%rsi
  4020c2:	48 89 ea             	mov    %rbp,%rdx
  4020c5:	4c 89 ef             	mov    %r13,%rdi
  4020c8:	e8 93 eb ff ff       	callq  400c60 <memcpy@plt>
  4020cd:	48 01 6b 08          	add    %rbp,0x8(%rbx)
  4020d1:	44 29 73 04          	sub    %r14d,0x4(%rbx)
  4020d5:	48 89 e8             	mov    %rbp,%rax
  4020d8:	eb 0e                	jmp    4020e8 <rio_read+0x82>
  4020da:	48 c7 c0 ff ff ff ff 	mov    $0xffffffffffffffff,%rax
  4020e1:	eb 05                	jmp    4020e8 <rio_read+0x82>
  4020e3:	b8 00 00 00 00       	mov    $0x0,%eax
  4020e8:	5b                   	pop    %rbx
  4020e9:	5d                   	pop    %rbp
  4020ea:	41 5c                	pop    %r12
  4020ec:	41 5d                	pop    %r13
  4020ee:	41 5e                	pop    %r14
  4020f0:	c3                   	retq   

00000000004020f1 <rio_readlineb>:
  4020f1:	41 55                	push   %r13
  4020f3:	41 54                	push   %r12
  4020f5:	55                   	push   %rbp
  4020f6:	53                   	push   %rbx
  4020f7:	48 83 ec 18          	sub    $0x18,%rsp
  4020fb:	49 89 fd             	mov    %rdi,%r13
  4020fe:	48 89 f5             	mov    %rsi,%rbp
  402101:	49 89 d4             	mov    %rdx,%r12
  402104:	bb 01 00 00 00       	mov    $0x1,%ebx
  402109:	eb 3f                	jmp    40214a <rio_readlineb+0x59>
  40210b:	ba 01 00 00 00       	mov    $0x1,%edx
  402110:	48 8d 74 24 0f       	lea    0xf(%rsp),%rsi
  402115:	4c 89 ef             	mov    %r13,%rdi
  402118:	e8 49 ff ff ff       	callq  402066 <rio_read>
  40211d:	83 f8 01             	cmp    $0x1,%eax
  402120:	75 15                	jne    402137 <rio_readlineb+0x46>
  402122:	48 8d 45 01          	lea    0x1(%rbp),%rax
  402126:	0f b6 54 24 0f       	movzbl 0xf(%rsp),%edx
  40212b:	88 55 00             	mov    %dl,0x0(%rbp)
  40212e:	80 7c 24 0f 0a       	cmpb   $0xa,0xf(%rsp)
  402133:	75 0e                	jne    402143 <rio_readlineb+0x52>
  402135:	eb 1a                	jmp    402151 <rio_readlineb+0x60>
  402137:	85 c0                	test   %eax,%eax
  402139:	75 22                	jne    40215d <rio_readlineb+0x6c>
  40213b:	48 83 fb 01          	cmp    $0x1,%rbx
  40213f:	75 13                	jne    402154 <rio_readlineb+0x63>
  402141:	eb 23                	jmp    402166 <rio_readlineb+0x75>
  402143:	48 83 c3 01          	add    $0x1,%rbx
  402147:	48 89 c5             	mov    %rax,%rbp
  40214a:	4c 39 e3             	cmp    %r12,%rbx
  40214d:	72 bc                	jb     40210b <rio_readlineb+0x1a>
  40214f:	eb 03                	jmp    402154 <rio_readlineb+0x63>
  402151:	48 89 c5             	mov    %rax,%rbp
  402154:	c6 45 00 00          	movb   $0x0,0x0(%rbp)
  402158:	48 89 d8             	mov    %rbx,%rax
  40215b:	eb 0e                	jmp    40216b <rio_readlineb+0x7a>
  40215d:	48 c7 c0 ff ff ff ff 	mov    $0xffffffffffffffff,%rax
  402164:	eb 05                	jmp    40216b <rio_readlineb+0x7a>
  402166:	b8 00 00 00 00       	mov    $0x0,%eax
  40216b:	48 83 c4 18          	add    $0x18,%rsp
  40216f:	5b                   	pop    %rbx
  402170:	5d                   	pop    %rbp
  402171:	41 5c                	pop    %r12
  402173:	41 5d                	pop    %r13
  402175:	c3                   	retq   

0000000000402176 <submitr>:
  402176:	41 57                	push   %r15
  402178:	41 56                	push   %r14
  40217a:	41 55                	push   %r13
  40217c:	41 54                	push   %r12
  40217e:	55                   	push   %rbp
  40217f:	53                   	push   %rbx
  402180:	48 81 ec 48 a0 00 00 	sub    $0xa048,%rsp
  402187:	49 89 fc             	mov    %rdi,%r12
  40218a:	89 74 24 04          	mov    %esi,0x4(%rsp)
  40218e:	49 89 d7             	mov    %rdx,%r15
  402191:	49 89 ce             	mov    %rcx,%r14
  402194:	4c 89 44 24 08       	mov    %r8,0x8(%rsp)
  402199:	4d 89 cd             	mov    %r9,%r13
  40219c:	48 8b 9c 24 80 a0 00 	mov    0xa080(%rsp),%rbx
  4021a3:	00 
  4021a4:	c7 84 24 1c 20 00 00 	movl   $0x0,0x201c(%rsp)
  4021ab:	00 00 00 00 
  4021af:	ba 00 00 00 00       	mov    $0x0,%edx
  4021b4:	be 01 00 00 00       	mov    $0x1,%esi
  4021b9:	bf 02 00 00 00       	mov    $0x2,%edi
  4021be:	e8 6d eb ff ff       	callq  400d30 <socket@plt>
  4021c3:	89 c5                	mov    %eax,%ebp
  4021c5:	85 c0                	test   %eax,%eax
  4021c7:	79 4e                	jns    402217 <submitr+0xa1>
  4021c9:	48 b8 45 72 72 6f 72 	movabs $0x43203a726f727245,%rax
  4021d0:	3a 20 43 
  4021d3:	48 89 03             	mov    %rax,(%rbx)
  4021d6:	48 b8 6c 69 65 6e 74 	movabs $0x6e7520746e65696c,%rax
  4021dd:	20 75 6e 
  4021e0:	48 89 43 08          	mov    %rax,0x8(%rbx)
  4021e4:	48 b8 61 62 6c 65 20 	movabs $0x206f7420656c6261,%rax
  4021eb:	74 6f 20 
  4021ee:	48 89 43 10          	mov    %rax,0x10(%rbx)
  4021f2:	48 b8 63 72 65 61 74 	movabs $0x7320657461657263,%rax
  4021f9:	65 20 73 
  4021fc:	48 89 43 18          	mov    %rax,0x18(%rbx)
  402200:	c7 43 20 6f 63 6b 65 	movl   $0x656b636f,0x20(%rbx)
  402207:	66 c7 43 24 74 00    	movw   $0x74,0x24(%rbx)
  40220d:	b8 ff ff ff ff       	mov    $0xffffffff,%eax
  402212:	e9 86 06 00 00       	jmpq   40289d <submitr+0x727>
  402217:	4c 89 e7             	mov    %r12,%rdi
  40221a:	e8 01 ea ff ff       	callq  400c20 <gethostbyname@plt>
  40221f:	48 85 c0             	test   %rax,%rax
  402222:	75 67                	jne    40228b <submitr+0x115>
  402224:	48 b8 45 72 72 6f 72 	movabs $0x44203a726f727245,%rax
  40222b:	3a 20 44 
  40222e:	48 89 03             	mov    %rax,(%rbx)
  402231:	48 b8 4e 53 20 69 73 	movabs $0x6e7520736920534e,%rax
  402238:	20 75 6e 
  40223b:	48 89 43 08          	mov    %rax,0x8(%rbx)
  40223f:	48 b8 61 62 6c 65 20 	movabs $0x206f7420656c6261,%rax
  402246:	74 6f 20 
  402249:	48 89 43 10          	mov    %rax,0x10(%rbx)
  40224d:	48 b8 72 65 73 6f 6c 	movabs $0x2065766c6f736572,%rax
  402254:	76 65 20 
  402257:	48 89 43 18          	mov    %rax,0x18(%rbx)
  40225b:	48 b8 73 65 72 76 65 	movabs $0x6120726576726573,%rax
  402262:	72 20 61 
  402265:	48 89 43 20          	mov    %rax,0x20(%rbx)
  402269:	c7 43 28 64 64 72 65 	movl   $0x65726464,0x28(%rbx)
  402270:	66 c7 43 2c 73 73    	movw   $0x7373,0x2c(%rbx)
  402276:	c6 43 2e 00          	movb   $0x0,0x2e(%rbx)
  40227a:	89 ef                	mov    %ebp,%edi
  40227c:	e8 5f e9 ff ff       	callq  400be0 <close@plt>
  402281:	b8 ff ff ff ff       	mov    $0xffffffff,%eax
  402286:	e9 12 06 00 00       	jmpq   40289d <submitr+0x727>
  40228b:	48 c7 84 24 30 a0 00 	movq   $0x0,0xa030(%rsp)
  402292:	00 00 00 00 00 
  402297:	48 c7 84 24 38 a0 00 	movq   $0x0,0xa038(%rsp)
  40229e:	00 00 00 00 00 
  4022a3:	66 c7 84 24 30 a0 00 	movw   $0x2,0xa030(%rsp)
  4022aa:	00 02 00 
  4022ad:	48 8b 48 18          	mov    0x18(%rax),%rcx
  4022b1:	48 63 50 14          	movslq 0x14(%rax),%rdx
  4022b5:	48 8d b4 24 34 a0 00 	lea    0xa034(%rsp),%rsi
  4022bc:	00 
  4022bd:	48 8b 39             	mov    (%rcx),%rdi
  4022c0:	e8 fb e9 ff ff       	callq  400cc0 <bcopy@plt>
  4022c5:	0f b7 44 24 04       	movzwl 0x4(%rsp),%eax
  4022ca:	66 c1 c8 08          	ror    $0x8,%ax
  4022ce:	66 89 84 24 32 a0 00 	mov    %ax,0xa032(%rsp)
  4022d5:	00 
  4022d6:	ba 10 00 00 00       	mov    $0x10,%edx
  4022db:	48 8d b4 24 30 a0 00 	lea    0xa030(%rsp),%rsi
  4022e2:	00 
  4022e3:	89 ef                	mov    %ebp,%edi
  4022e5:	e8 36 ea ff ff       	callq  400d20 <connect@plt>
  4022ea:	85 c0                	test   %eax,%eax
  4022ec:	79 59                	jns    402347 <submitr+0x1d1>
  4022ee:	48 b8 45 72 72 6f 72 	movabs $0x55203a726f727245,%rax
  4022f5:	3a 20 55 
  4022f8:	48 89 03             	mov    %rax,(%rbx)
  4022fb:	48 b8 6e 61 62 6c 65 	movabs $0x6f7420656c62616e,%rax
  402302:	20 74 6f 
  402305:	48 89 43 08          	mov    %rax,0x8(%rbx)
  402309:	48 b8 20 63 6f 6e 6e 	movabs $0x7463656e6e6f6320,%rax
  402310:	65 63 74 
  402313:	48 89 43 10          	mov    %rax,0x10(%rbx)
  402317:	48 b8 20 74 6f 20 74 	movabs $0x20656874206f7420,%rax
  40231e:	68 65 20 
  402321:	48 89 43 18          	mov    %rax,0x18(%rbx)
  402325:	c7 43 20 73 65 72 76 	movl   $0x76726573,0x20(%rbx)
  40232c:	66 c7 43 24 65 72    	movw   $0x7265,0x24(%rbx)
  402332:	c6 43 26 00          	movb   $0x0,0x26(%rbx)
  402336:	89 ef                	mov    %ebp,%edi
  402338:	e8 a3 e8 ff ff       	callq  400be0 <close@plt>
  40233d:	b8 ff ff ff ff       	mov    $0xffffffff,%eax
  402342:	e9 56 05 00 00       	jmpq   40289d <submitr+0x727>
  402347:	49 c7 c0 ff ff ff ff 	mov    $0xffffffffffffffff,%r8
  40234e:	4c 89 ef             	mov    %r13,%rdi
  402351:	b8 00 00 00 00       	mov    $0x0,%eax
  402356:	4c 89 c1             	mov    %r8,%rcx
  402359:	f2 ae                	repnz scas %es:(%rdi),%al
  40235b:	48 f7 d1             	not    %rcx
  40235e:	48 89 ce             	mov    %rcx,%rsi
  402361:	4c 89 ff             	mov    %r15,%rdi
  402364:	4c 89 c1             	mov    %r8,%rcx
  402367:	f2 ae                	repnz scas %es:(%rdi),%al
  402369:	48 f7 d1             	not    %rcx
  40236c:	48 89 ca             	mov    %rcx,%rdx
  40236f:	4c 89 f7             	mov    %r14,%rdi
  402372:	4c 89 c1             	mov    %r8,%rcx
  402375:	f2 ae                	repnz scas %es:(%rdi),%al
  402377:	48 29 ca             	sub    %rcx,%rdx
  40237a:	48 8b 7c 24 08       	mov    0x8(%rsp),%rdi
  40237f:	4c 89 c1             	mov    %r8,%rcx
  402382:	f2 ae                	repnz scas %es:(%rdi),%al
  402384:	48 29 ca             	sub    %rcx,%rdx
  402387:	48 8d 44 76 fd       	lea    -0x3(%rsi,%rsi,2),%rax
  40238c:	48 8d 44 02 7b       	lea    0x7b(%rdx,%rax,1),%rax
  402391:	48 3d 00 20 00 00    	cmp    $0x2000,%rax
  402397:	76 72                	jbe    40240b <submitr+0x295>
  402399:	48 b8 45 72 72 6f 72 	movabs $0x52203a726f727245,%rax
  4023a0:	3a 20 52 
  4023a3:	48 89 03             	mov    %rax,(%rbx)
  4023a6:	48 b8 65 73 75 6c 74 	movabs $0x747320746c757365,%rax
  4023ad:	20 73 74 
  4023b0:	48 89 43 08          	mov    %rax,0x8(%rbx)
  4023b4:	48 b8 72 69 6e 67 20 	movabs $0x6f6f7420676e6972,%rax
  4023bb:	74 6f 6f 
  4023be:	48 89 43 10          	mov    %rax,0x10(%rbx)
  4023c2:	48 b8 20 6c 61 72 67 	movabs $0x202e656772616c20,%rax
  4023c9:	65 2e 20 
  4023cc:	48 89 43 18          	mov    %rax,0x18(%rbx)
  4023d0:	48 b8 49 6e 63 72 65 	movabs $0x6573616572636e49,%rax
  4023d7:	61 73 65 
  4023da:	48 89 43 20          	mov    %rax,0x20(%rbx)
  4023de:	48 b8 20 53 55 42 4d 	movabs $0x5254494d42555320,%rax
  4023e5:	49 54 52 
  4023e8:	48 89 43 28          	mov    %rax,0x28(%rbx)
  4023ec:	48 b8 5f 4d 41 58 42 	movabs $0x46554258414d5f,%rax
  4023f3:	55 46 00 
  4023f6:	48 89 43 30          	mov    %rax,0x30(%rbx)
  4023fa:	89 ef                	mov    %ebp,%edi
  4023fc:	e8 df e7 ff ff       	callq  400be0 <close@plt>
  402401:	b8 ff ff ff ff       	mov    $0xffffffff,%eax
  402406:	e9 92 04 00 00       	jmpq   40289d <submitr+0x727>
  40240b:	48 8d b4 24 20 40 00 	lea    0x4020(%rsp),%rsi
  402412:	00 
  402413:	b9 00 04 00 00       	mov    $0x400,%ecx
  402418:	b8 00 00 00 00       	mov    $0x0,%eax
  40241d:	48 89 f7             	mov    %rsi,%rdi
  402420:	f3 48 ab             	rep stos %rax,%es:(%rdi)
  402423:	4c 89 ef             	mov    %r13,%rdi
  402426:	e8 09 fb ff ff       	callq  401f34 <urlencode>
  40242b:	85 c0                	test   %eax,%eax
  40242d:	0f 89 8a 00 00 00    	jns    4024bd <submitr+0x347>
  402433:	48 b8 45 72 72 6f 72 	movabs $0x52203a726f727245,%rax
  40243a:	3a 20 52 
  40243d:	48 89 03             	mov    %rax,(%rbx)
  402440:	48 b8 65 73 75 6c 74 	movabs $0x747320746c757365,%rax
  402447:	20 73 74 
  40244a:	48 89 43 08          	mov    %rax,0x8(%rbx)
  40244e:	48 b8 72 69 6e 67 20 	movabs $0x6e6f6320676e6972,%rax
  402455:	63 6f 6e 
  402458:	48 89 43 10          	mov    %rax,0x10(%rbx)
  40245c:	48 b8 74 61 69 6e 73 	movabs $0x6e6120736e696174,%rax
  402463:	20 61 6e 
  402466:	48 89 43 18          	mov    %rax,0x18(%rbx)
  40246a:	48 b8 20 69 6c 6c 65 	movabs $0x6c6167656c6c6920,%rax
  402471:	67 61 6c 
  402474:	48 89 43 20          	mov    %rax,0x20(%rbx)
  402478:	48 b8 20 6f 72 20 75 	movabs $0x72706e7520726f20,%rax
  40247f:	6e 70 72 
  402482:	48 89 43 28          	mov    %rax,0x28(%rbx)
  402486:	48 b8 69 6e 74 61 62 	movabs $0x20656c6261746e69,%rax
  40248d:	6c 65 20 
  402490:	48 89 43 30          	mov    %rax,0x30(%rbx)
  402494:	48 b8 63 68 61 72 61 	movabs $0x6574636172616863,%rax
  40249b:	63 74 65 
  40249e:	48 89 43 38          	mov    %rax,0x38(%rbx)
  4024a2:	66 c7 43 40 72 2e    	movw   $0x2e72,0x40(%rbx)
  4024a8:	c6 43 42 00          	movb   $0x0,0x42(%rbx)
  4024ac:	89 ef                	mov    %ebp,%edi
  4024ae:	e8 2d e7 ff ff       	callq  400be0 <close@plt>
  4024b3:	b8 ff ff ff ff       	mov    $0xffffffff,%eax
  4024b8:	e9 e0 03 00 00       	jmpq   40289d <submitr+0x727>
  4024bd:	4d 89 e1             	mov    %r12,%r9
  4024c0:	4c 8d 84 24 20 40 00 	lea    0x4020(%rsp),%r8
  4024c7:	00 
  4024c8:	4c 89 f9             	mov    %r15,%rcx
  4024cb:	4c 89 f2             	mov    %r14,%rdx
  4024ce:	be d8 32 40 00       	mov    $0x4032d8,%esi
  4024d3:	48 8d bc 24 20 60 00 	lea    0x6020(%rsp),%rdi
  4024da:	00 
  4024db:	b8 00 00 00 00       	mov    $0x0,%eax
  4024e0:	e8 1b e8 ff ff       	callq  400d00 <sprintf@plt>
  4024e5:	48 8d bc 24 20 60 00 	lea    0x6020(%rsp),%rdi
  4024ec:	00 
  4024ed:	b8 00 00 00 00       	mov    $0x0,%eax
  4024f2:	48 c7 c1 ff ff ff ff 	mov    $0xffffffffffffffff,%rcx
  4024f9:	f2 ae                	repnz scas %es:(%rdi),%al
  4024fb:	48 f7 d1             	not    %rcx
  4024fe:	48 8d 51 ff          	lea    -0x1(%rcx),%rdx
  402502:	48 8d b4 24 20 60 00 	lea    0x6020(%rsp),%rsi
  402509:	00 
  40250a:	89 ef                	mov    %ebp,%edi
  40250c:	e8 f9 fa ff ff       	callq  40200a <rio_writen>
  402511:	48 85 c0             	test   %rax,%rax
  402514:	79 6e                	jns    402584 <submitr+0x40e>
  402516:	48 b8 45 72 72 6f 72 	movabs $0x43203a726f727245,%rax
  40251d:	3a 20 43 
  402520:	48 89 03             	mov    %rax,(%rbx)
  402523:	48 b8 6c 69 65 6e 74 	movabs $0x6e7520746e65696c,%rax
  40252a:	20 75 6e 
  40252d:	48 89 43 08          	mov    %rax,0x8(%rbx)
  402531:	48 b8 61 62 6c 65 20 	movabs $0x206f7420656c6261,%rax
  402538:	74 6f 20 
  40253b:	48 89 43 10          	mov    %rax,0x10(%rbx)
  40253f:	48 b8 77 72 69 74 65 	movabs $0x6f74206574697277,%rax
  402546:	20 74 6f 
  402549:	48 89 43 18          	mov    %rax,0x18(%rbx)
  40254d:	48 b8 20 74 68 65 20 	movabs $0x7365722065687420,%rax
  402554:	72 65 73 
  402557:	48 89 43 20          	mov    %rax,0x20(%rbx)
  40255b:	48 b8 75 6c 74 20 73 	movabs $0x7672657320746c75,%rax
  402562:	65 72 76 
  402565:	48 89 43 28          	mov    %rax,0x28(%rbx)
  402569:	66 c7 43 30 65 72    	movw   $0x7265,0x30(%rbx)
  40256f:	c6 43 32 00          	movb   $0x0,0x32(%rbx)
  402573:	89 ef                	mov    %ebp,%edi
  402575:	e8 66 e6 ff ff       	callq  400be0 <close@plt>
  40257a:	b8 ff ff ff ff       	mov    $0xffffffff,%eax
  40257f:	e9 19 03 00 00       	jmpq   40289d <submitr+0x727>
  402584:	89 ee                	mov    %ebp,%esi
  402586:	48 8d bc 24 20 80 00 	lea    0x8020(%rsp),%rdi
  40258d:	00 
  40258e:	e8 66 f9 ff ff       	callq  401ef9 <rio_readinitb>
  402593:	ba 00 20 00 00       	mov    $0x2000,%edx
  402598:	48 8d b4 24 20 60 00 	lea    0x6020(%rsp),%rsi
  40259f:	00 
  4025a0:	48 8d bc 24 20 80 00 	lea    0x8020(%rsp),%rdi
  4025a7:	00 
  4025a8:	e8 44 fb ff ff       	callq  4020f1 <rio_readlineb>
  4025ad:	48 85 c0             	test   %rax,%rax
  4025b0:	7f 7d                	jg     40262f <submitr+0x4b9>
  4025b2:	48 b8 45 72 72 6f 72 	movabs $0x43203a726f727245,%rax
  4025b9:	3a 20 43 
  4025bc:	48 89 03             	mov    %rax,(%rbx)
  4025bf:	48 b8 6c 69 65 6e 74 	movabs $0x6e7520746e65696c,%rax
  4025c6:	20 75 6e 
  4025c9:	48 89 43 08          	mov    %rax,0x8(%rbx)
  4025cd:	48 b8 61 62 6c 65 20 	movabs $0x206f7420656c6261,%rax
  4025d4:	74 6f 20 
  4025d7:	48 89 43 10          	mov    %rax,0x10(%rbx)
  4025db:	48 b8 72 65 61 64 20 	movabs $0x7269662064616572,%rax
  4025e2:	66 69 72 
  4025e5:	48 89 43 18          	mov    %rax,0x18(%rbx)
  4025e9:	48 b8 73 74 20 68 65 	movabs $0x6564616568207473,%rax
  4025f0:	61 64 65 
  4025f3:	48 89 43 20          	mov    %rax,0x20(%rbx)
  4025f7:	48 b8 72 20 66 72 6f 	movabs $0x72206d6f72662072,%rax
  4025fe:	6d 20 72 
  402601:	48 89 43 28          	mov    %rax,0x28(%rbx)
  402605:	48 b8 65 73 75 6c 74 	movabs $0x657320746c757365,%rax
  40260c:	20 73 65 
  40260f:	48 89 43 30          	mov    %rax,0x30(%rbx)
  402613:	c7 43 38 72 76 65 72 	movl   $0x72657672,0x38(%rbx)
  40261a:	c6 43 3c 00          	movb   $0x0,0x3c(%rbx)
  40261e:	89 ef                	mov    %ebp,%edi
  402620:	e8 bb e5 ff ff       	callq  400be0 <close@plt>
  402625:	b8 ff ff ff ff       	mov    $0xffffffff,%eax
  40262a:	e9 6e 02 00 00       	jmpq   40289d <submitr+0x727>
  40262f:	4c 8d 44 24 10       	lea    0x10(%rsp),%r8
  402634:	48 8d 8c 24 1c 20 00 	lea    0x201c(%rsp),%rcx
  40263b:	00 
  40263c:	48 8d 94 24 20 20 00 	lea    0x2020(%rsp),%rdx
  402643:	00 
  402644:	be 57 33 40 00       	mov    $0x403357,%esi
  402649:	48 8d bc 24 20 60 00 	lea    0x6020(%rsp),%rdi
  402650:	00 
  402651:	b8 00 00 00 00       	mov    $0x0,%eax
  402656:	e8 45 e6 ff ff       	callq  400ca0 <__isoc99_sscanf@plt>
  40265b:	e9 98 00 00 00       	jmpq   4026f8 <submitr+0x582>
  402660:	ba 00 20 00 00       	mov    $0x2000,%edx
  402665:	48 8d b4 24 20 60 00 	lea    0x6020(%rsp),%rsi
  40266c:	00 
  40266d:	48 8d bc 24 20 80 00 	lea    0x8020(%rsp),%rdi
  402674:	00 
  402675:	e8 77 fa ff ff       	callq  4020f1 <rio_readlineb>
  40267a:	48 85 c0             	test   %rax,%rax
  40267d:	7f 79                	jg     4026f8 <submitr+0x582>
  40267f:	48 b8 45 72 72 6f 72 	movabs $0x43203a726f727245,%rax
  402686:	3a 20 43 
  402689:	48 89 03             	mov    %rax,(%rbx)
  40268c:	48 b8 6c 69 65 6e 74 	movabs $0x6e7520746e65696c,%rax
  402693:	20 75 6e 
  402696:	48 89 43 08          	mov    %rax,0x8(%rbx)
  40269a:	48 b8 61 62 6c 65 20 	movabs $0x206f7420656c6261,%rax
  4026a1:	74 6f 20 
  4026a4:	48 89 43 10          	mov    %rax,0x10(%rbx)
  4026a8:	48 b8 72 65 61 64 20 	movabs $0x6165682064616572,%rax
  4026af:	68 65 61 
  4026b2:	48 89 43 18          	mov    %rax,0x18(%rbx)
  4026b6:	48 b8 64 65 72 73 20 	movabs $0x6f72662073726564,%rax
  4026bd:	66 72 6f 
  4026c0:	48 89 43 20          	mov    %rax,0x20(%rbx)
  4026c4:	48 b8 6d 20 74 68 65 	movabs $0x657220656874206d,%rax
  4026cb:	20 72 65 
  4026ce:	48 89 43 28          	mov    %rax,0x28(%rbx)
  4026d2:	48 b8 73 75 6c 74 20 	movabs $0x72657320746c7573,%rax
  4026d9:	73 65 72 
  4026dc:	48 89 43 30          	mov    %rax,0x30(%rbx)
  4026e0:	c7 43 38 76 65 72 00 	movl   $0x726576,0x38(%rbx)
  4026e7:	89 ef                	mov    %ebp,%edi
  4026e9:	e8 f2 e4 ff ff       	callq  400be0 <close@plt>
  4026ee:	b8 ff ff ff ff       	mov    $0xffffffff,%eax
  4026f3:	e9 a5 01 00 00       	jmpq   40289d <submitr+0x727>
  4026f8:	0f b6 94 24 20 60 00 	movzbl 0x6020(%rsp),%edx
  4026ff:	00 
  402700:	b8 0d 00 00 00       	mov    $0xd,%eax
  402705:	29 d0                	sub    %edx,%eax
  402707:	75 1b                	jne    402724 <submitr+0x5ae>
  402709:	0f b6 94 24 21 60 00 	movzbl 0x6021(%rsp),%edx
  402710:	00 
  402711:	b8 0a 00 00 00       	mov    $0xa,%eax
  402716:	29 d0                	sub    %edx,%eax
  402718:	75 0a                	jne    402724 <submitr+0x5ae>
  40271a:	0f b6 84 24 22 60 00 	movzbl 0x6022(%rsp),%eax
  402721:	00 
  402722:	f7 d8                	neg    %eax
  402724:	85 c0                	test   %eax,%eax
  402726:	0f 85 34 ff ff ff    	jne    402660 <submitr+0x4ea>
  40272c:	ba 00 20 00 00       	mov    $0x2000,%edx
  402731:	48 8d b4 24 20 60 00 	lea    0x6020(%rsp),%rsi
  402738:	00 
  402739:	48 8d bc 24 20 80 00 	lea    0x8020(%rsp),%rdi
  402740:	00 
  402741:	e8 ab f9 ff ff       	callq  4020f1 <rio_readlineb>
  402746:	48 85 c0             	test   %rax,%rax
  402749:	0f 8f 83 00 00 00    	jg     4027d2 <submitr+0x65c>
  40274f:	48 b8 45 72 72 6f 72 	movabs $0x43203a726f727245,%rax
  402756:	3a 20 43 
  402759:	48 89 03             	mov    %rax,(%rbx)
  40275c:	48 b8 6c 69 65 6e 74 	movabs $0x6e7520746e65696c,%rax
  402763:	20 75 6e 
  402766:	48 89 43 08          	mov    %rax,0x8(%rbx)
  40276a:	48 b8 61 62 6c 65 20 	movabs $0x206f7420656c6261,%rax
  402771:	74 6f 20 
  402774:	48 89 43 10          	mov    %rax,0x10(%rbx)
  402778:	48 b8 72 65 61 64 20 	movabs $0x6174732064616572,%rax
  40277f:	73 74 61 
  402782:	48 89 43 18          	mov    %rax,0x18(%rbx)
  402786:	48 b8 74 75 73 20 6d 	movabs $0x7373656d20737574,%rax
  40278d:	65 73 73 
  402790:	48 89 43 20          	mov    %rax,0x20(%rbx)
  402794:	48 b8 61 67 65 20 66 	movabs $0x6d6f726620656761,%rax
  40279b:	72 6f 6d 
  40279e:	48 89 43 28          	mov    %rax,0x28(%rbx)
  4027a2:	48 b8 20 72 65 73 75 	movabs $0x20746c7573657220,%rax
  4027a9:	6c 74 20 
  4027ac:	48 89 43 30          	mov    %rax,0x30(%rbx)
  4027b0:	c7 43 38 73 65 72 76 	movl   $0x76726573,0x38(%rbx)
  4027b7:	66 c7 43 3c 65 72    	movw   $0x7265,0x3c(%rbx)
  4027bd:	c6 43 3e 00          	movb   $0x0,0x3e(%rbx)
  4027c1:	89 ef                	mov    %ebp,%edi
  4027c3:	e8 18 e4 ff ff       	callq  400be0 <close@plt>
  4027c8:	b8 ff ff ff ff       	mov    $0xffffffff,%eax
  4027cd:	e9 cb 00 00 00       	jmpq   40289d <submitr+0x727>
  4027d2:	8b 94 24 1c 20 00 00 	mov    0x201c(%rsp),%edx
  4027d9:	81 fa c8 00 00 00    	cmp    $0xc8,%edx
  4027df:	74 28                	je     402809 <submitr+0x693>
  4027e1:	48 8d 4c 24 10       	lea    0x10(%rsp),%rcx
  4027e6:	be 20 33 40 00       	mov    $0x403320,%esi
  4027eb:	48 89 df             	mov    %rbx,%rdi
  4027ee:	b8 00 00 00 00       	mov    $0x0,%eax
  4027f3:	e8 08 e5 ff ff       	callq  400d00 <sprintf@plt>
  4027f8:	89 ef                	mov    %ebp,%edi
  4027fa:	e8 e1 e3 ff ff       	callq  400be0 <close@plt>
  4027ff:	b8 ff ff ff ff       	mov    $0xffffffff,%eax
  402804:	e9 94 00 00 00       	jmpq   40289d <submitr+0x727>
  402809:	48 8d b4 24 20 60 00 	lea    0x6020(%rsp),%rsi
  402810:	00 
  402811:	48 89 df             	mov    %rbx,%rdi
  402814:	e8 57 e3 ff ff       	callq  400b70 <strcpy@plt>
  402819:	89 ef                	mov    %ebp,%edi
  40281b:	e8 c0 e3 ff ff       	callq  400be0 <close@plt>
  402820:	0f b6 03             	movzbl (%rbx),%eax
  402823:	ba 4f 00 00 00       	mov    $0x4f,%edx
  402828:	29 c2                	sub    %eax,%edx
  40282a:	75 22                	jne    40284e <submitr+0x6d8>
  40282c:	0f b6 4b 01          	movzbl 0x1(%rbx),%ecx
  402830:	b8 4b 00 00 00       	mov    $0x4b,%eax
  402835:	29 c8                	sub    %ecx,%eax
  402837:	75 17                	jne    402850 <submitr+0x6da>
  402839:	0f b6 4b 02          	movzbl 0x2(%rbx),%ecx
  40283d:	b8 0a 00 00 00       	mov    $0xa,%eax
  402842:	29 c8                	sub    %ecx,%eax
  402844:	75 0a                	jne    402850 <submitr+0x6da>
  402846:	0f b6 43 03          	movzbl 0x3(%rbx),%eax
  40284a:	f7 d8                	neg    %eax
  40284c:	eb 02                	jmp    402850 <submitr+0x6da>
  40284e:	89 d0                	mov    %edx,%eax
  402850:	85 c0                	test   %eax,%eax
  402852:	74 3d                	je     402891 <submitr+0x71b>
  402854:	bf 68 33 40 00       	mov    $0x403368,%edi
  402859:	b9 05 00 00 00       	mov    $0x5,%ecx
  40285e:	48 89 de             	mov    %rbx,%rsi
  402861:	f3 a6                	repz cmpsb %es:(%rdi),%ds:(%rsi)
  402863:	0f 97 c0             	seta   %al
  402866:	0f 92 c1             	setb   %cl
  402869:	29 c8                	sub    %ecx,%eax
  40286b:	0f be c0             	movsbl %al,%eax
  40286e:	85 c0                	test   %eax,%eax
  402870:	74 2b                	je     40289d <submitr+0x727>
  402872:	85 d2                	test   %edx,%edx
  402874:	75 10                	jne    402886 <submitr+0x710>
  402876:	0f b6 43 01          	movzbl 0x1(%rbx),%eax
  40287a:	b2 4b                	mov    $0x4b,%dl
  40287c:	29 c2                	sub    %eax,%edx
  40287e:	75 06                	jne    402886 <submitr+0x710>
  402880:	0f b6 53 02          	movzbl 0x2(%rbx),%edx
  402884:	f7 da                	neg    %edx
  402886:	85 d2                	test   %edx,%edx
  402888:	75 0e                	jne    402898 <submitr+0x722>
  40288a:	b8 00 00 00 00       	mov    $0x0,%eax
  40288f:	eb 0c                	jmp    40289d <submitr+0x727>
  402891:	b8 00 00 00 00       	mov    $0x0,%eax
  402896:	eb 05                	jmp    40289d <submitr+0x727>
  402898:	b8 ff ff ff ff       	mov    $0xffffffff,%eax
  40289d:	48 81 c4 48 a0 00 00 	add    $0xa048,%rsp
  4028a4:	5b                   	pop    %rbx
  4028a5:	5d                   	pop    %rbp
  4028a6:	41 5c                	pop    %r12
  4028a8:	41 5d                	pop    %r13
  4028aa:	41 5e                	pop    %r14
  4028ac:	41 5f                	pop    %r15
  4028ae:	c3                   	retq   

00000000004028af <init_timeout>:
  4028af:	53                   	push   %rbx
  4028b0:	89 fb                	mov    %edi,%ebx
  4028b2:	85 ff                	test   %edi,%edi
  4028b4:	74 1f                	je     4028d5 <init_timeout+0x26>
  4028b6:	85 ff                	test   %edi,%edi
  4028b8:	79 05                	jns    4028bf <init_timeout+0x10>
  4028ba:	bb 00 00 00 00       	mov    $0x0,%ebx
  4028bf:	be 0b 1f 40 00       	mov    $0x401f0b,%esi
  4028c4:	bf 0e 00 00 00       	mov    $0xe,%edi
  4028c9:	e8 42 e3 ff ff       	callq  400c10 <signal@plt>
  4028ce:	89 df                	mov    %ebx,%edi
  4028d0:	e8 fb e2 ff ff       	callq  400bd0 <alarm@plt>
  4028d5:	5b                   	pop    %rbx
  4028d6:	c3                   	retq   

00000000004028d7 <init_driver>:
  4028d7:	55                   	push   %rbp
  4028d8:	53                   	push   %rbx
  4028d9:	48 83 ec 18          	sub    $0x18,%rsp
  4028dd:	48 89 fd             	mov    %rdi,%rbp
  4028e0:	be 01 00 00 00       	mov    $0x1,%esi
  4028e5:	bf 0d 00 00 00       	mov    $0xd,%edi
  4028ea:	e8 21 e3 ff ff       	callq  400c10 <signal@plt>
  4028ef:	be 01 00 00 00       	mov    $0x1,%esi
  4028f4:	bf 1d 00 00 00       	mov    $0x1d,%edi
  4028f9:	e8 12 e3 ff ff       	callq  400c10 <signal@plt>
  4028fe:	be 01 00 00 00       	mov    $0x1,%esi
  402903:	bf 1d 00 00 00       	mov    $0x1d,%edi
  402908:	e8 03 e3 ff ff       	callq  400c10 <signal@plt>
  40290d:	ba 00 00 00 00       	mov    $0x0,%edx
  402912:	be 01 00 00 00       	mov    $0x1,%esi
  402917:	bf 02 00 00 00       	mov    $0x2,%edi
  40291c:	e8 0f e4 ff ff       	callq  400d30 <socket@plt>
  402921:	89 c3                	mov    %eax,%ebx
  402923:	85 c0                	test   %eax,%eax
  402925:	79 4f                	jns    402976 <init_driver+0x9f>
  402927:	48 b8 45 72 72 6f 72 	movabs $0x43203a726f727245,%rax
  40292e:	3a 20 43 
  402931:	48 89 45 00          	mov    %rax,0x0(%rbp)
  402935:	48 b8 6c 69 65 6e 74 	movabs $0x6e7520746e65696c,%rax
  40293c:	20 75 6e 
  40293f:	48 89 45 08          	mov    %rax,0x8(%rbp)
  402943:	48 b8 61 62 6c 65 20 	movabs $0x206f7420656c6261,%rax
  40294a:	74 6f 20 
  40294d:	48 89 45 10          	mov    %rax,0x10(%rbp)
  402951:	48 b8 63 72 65 61 74 	movabs $0x7320657461657263,%rax
  402958:	65 20 73 
  40295b:	48 89 45 18          	mov    %rax,0x18(%rbp)
  40295f:	c7 45 20 6f 63 6b 65 	movl   $0x656b636f,0x20(%rbp)
  402966:	66 c7 45 24 74 00    	movw   $0x74,0x24(%rbp)
  40296c:	b8 ff ff ff ff       	mov    $0xffffffff,%eax
  402971:	e9 23 01 00 00       	jmpq   402a99 <init_driver+0x1c2>
  402976:	bf 6d 33 40 00       	mov    $0x40336d,%edi
  40297b:	e8 a0 e2 ff ff       	callq  400c20 <gethostbyname@plt>
  402980:	48 85 c0             	test   %rax,%rax
  402983:	75 68                	jne    4029ed <init_driver+0x116>
  402985:	48 b8 45 72 72 6f 72 	movabs $0x44203a726f727245,%rax
  40298c:	3a 20 44 
  40298f:	48 89 45 00          	mov    %rax,0x0(%rbp)
  402993:	48 b8 4e 53 20 69 73 	movabs $0x6e7520736920534e,%rax
  40299a:	20 75 6e 
  40299d:	48 89 45 08          	mov    %rax,0x8(%rbp)
  4029a1:	48 b8 61 62 6c 65 20 	movabs $0x206f7420656c6261,%rax
  4029a8:	74 6f 20 
  4029ab:	48 89 45 10          	mov    %rax,0x10(%rbp)
  4029af:	48 b8 72 65 73 6f 6c 	movabs $0x2065766c6f736572,%rax
  4029b6:	76 65 20 
  4029b9:	48 89 45 18          	mov    %rax,0x18(%rbp)
  4029bd:	48 b8 73 65 72 76 65 	movabs $0x6120726576726573,%rax
  4029c4:	72 20 61 
  4029c7:	48 89 45 20          	mov    %rax,0x20(%rbp)
  4029cb:	c7 45 28 64 64 72 65 	movl   $0x65726464,0x28(%rbp)
  4029d2:	66 c7 45 2c 73 73    	movw   $0x7373,0x2c(%rbp)
  4029d8:	c6 45 2e 00          	movb   $0x0,0x2e(%rbp)
  4029dc:	89 df                	mov    %ebx,%edi
  4029de:	e8 fd e1 ff ff       	callq  400be0 <close@plt>
  4029e3:	b8 ff ff ff ff       	mov    $0xffffffff,%eax
  4029e8:	e9 ac 00 00 00       	jmpq   402a99 <init_driver+0x1c2>
  4029ed:	48 c7 04 24 00 00 00 	movq   $0x0,(%rsp)
  4029f4:	00 
  4029f5:	48 c7 44 24 08 00 00 	movq   $0x0,0x8(%rsp)
  4029fc:	00 00 
  4029fe:	66 c7 04 24 02 00    	movw   $0x2,(%rsp)
  402a04:	48 8b 48 18          	mov    0x18(%rax),%rcx
  402a08:	48 63 50 14          	movslq 0x14(%rax),%rdx
  402a0c:	48 8d 74 24 04       	lea    0x4(%rsp),%rsi
  402a11:	48 8b 39             	mov    (%rcx),%rdi
  402a14:	e8 a7 e2 ff ff       	callq  400cc0 <bcopy@plt>
  402a19:	66 c7 44 24 02 00 50 	movw   $0x5000,0x2(%rsp)
  402a20:	ba 10 00 00 00       	mov    $0x10,%edx
  402a25:	48 89 e6             	mov    %rsp,%rsi
  402a28:	89 df                	mov    %ebx,%edi
  402a2a:	e8 f1 e2 ff ff       	callq  400d20 <connect@plt>
  402a2f:	85 c0                	test   %eax,%eax
  402a31:	79 50                	jns    402a83 <init_driver+0x1ac>
  402a33:	48 b8 45 72 72 6f 72 	movabs $0x55203a726f727245,%rax
  402a3a:	3a 20 55 
  402a3d:	48 89 45 00          	mov    %rax,0x0(%rbp)
  402a41:	48 b8 6e 61 62 6c 65 	movabs $0x6f7420656c62616e,%rax
  402a48:	20 74 6f 
  402a4b:	48 89 45 08          	mov    %rax,0x8(%rbp)
  402a4f:	48 b8 20 63 6f 6e 6e 	movabs $0x7463656e6e6f6320,%rax
  402a56:	65 63 74 
  402a59:	48 89 45 10          	mov    %rax,0x10(%rbp)
  402a5d:	48 b8 20 74 6f 20 73 	movabs $0x76726573206f7420,%rax
  402a64:	65 72 76 
  402a67:	48 89 45 18          	mov    %rax,0x18(%rbp)
  402a6b:	66 c7 45 20 65 72    	movw   $0x7265,0x20(%rbp)
  402a71:	c6 45 22 00          	movb   $0x0,0x22(%rbp)
  402a75:	89 df                	mov    %ebx,%edi
  402a77:	e8 64 e1 ff ff       	callq  400be0 <close@plt>
  402a7c:	b8 ff ff ff ff       	mov    $0xffffffff,%eax
  402a81:	eb 16                	jmp    402a99 <init_driver+0x1c2>
  402a83:	89 df                	mov    %ebx,%edi
  402a85:	e8 56 e1 ff ff       	callq  400be0 <close@plt>
  402a8a:	66 c7 45 00 4f 4b    	movw   $0x4b4f,0x0(%rbp)
  402a90:	c6 45 02 00          	movb   $0x0,0x2(%rbp)
  402a94:	b8 00 00 00 00       	mov    $0x0,%eax
  402a99:	48 83 c4 18          	add    $0x18,%rsp
  402a9d:	5b                   	pop    %rbx
  402a9e:	5d                   	pop    %rbp
  402a9f:	c3                   	retq   

0000000000402aa0 <driver_post>:
  402aa0:	53                   	push   %rbx
  402aa1:	4c 89 cb             	mov    %r9,%rbx
  402aa4:	45 85 c0             	test   %r8d,%r8d
  402aa7:	74 22                	je     402acb <driver_post+0x2b>
  402aa9:	48 89 ce             	mov    %rcx,%rsi
  402aac:	bf 7f 33 40 00       	mov    $0x40337f,%edi
  402ab1:	b8 00 00 00 00       	mov    $0x0,%eax
  402ab6:	e8 f5 e0 ff ff       	callq  400bb0 <printf@plt>
  402abb:	66 c7 03 4f 4b       	movw   $0x4b4f,(%rbx)
  402ac0:	c6 43 02 00          	movb   $0x0,0x2(%rbx)
  402ac4:	b8 00 00 00 00       	mov    $0x0,%eax
  402ac9:	eb 3f                	jmp    402b0a <driver_post+0x6a>
  402acb:	48 85 ff             	test   %rdi,%rdi
  402ace:	74 2c                	je     402afc <driver_post+0x5c>
  402ad0:	80 3f 00             	cmpb   $0x0,(%rdi)
  402ad3:	74 27                	je     402afc <driver_post+0x5c>
  402ad5:	48 83 ec 08          	sub    $0x8,%rsp
  402ad9:	41 51                	push   %r9
  402adb:	49 89 c9             	mov    %rcx,%r9
  402ade:	49 89 d0             	mov    %rdx,%r8
  402ae1:	48 89 f9             	mov    %rdi,%rcx
  402ae4:	48 89 f2             	mov    %rsi,%rdx
  402ae7:	be 9a 3c 00 00       	mov    $0x3c9a,%esi
  402aec:	bf 6d 33 40 00       	mov    $0x40336d,%edi
  402af1:	e8 80 f6 ff ff       	callq  402176 <submitr>
  402af6:	48 83 c4 10          	add    $0x10,%rsp
  402afa:	eb 0e                	jmp    402b0a <driver_post+0x6a>
  402afc:	66 c7 03 4f 4b       	movw   $0x4b4f,(%rbx)
  402b01:	c6 43 02 00          	movb   $0x0,0x2(%rbx)
  402b05:	b8 00 00 00 00       	mov    $0x0,%eax
  402b0a:	5b                   	pop    %rbx
  402b0b:	c3                   	retq   

0000000000402b0c <check>:
  402b0c:	89 f8                	mov    %edi,%eax
  402b0e:	c1 e8 1c             	shr    $0x1c,%eax
  402b11:	85 c0                	test   %eax,%eax
  402b13:	74 1d                	je     402b32 <check+0x26>
  402b15:	b9 00 00 00 00       	mov    $0x0,%ecx
  402b1a:	eb 0b                	jmp    402b27 <check+0x1b>
  402b1c:	89 f8                	mov    %edi,%eax
  402b1e:	d3 e8                	shr    %cl,%eax
  402b20:	3c 0a                	cmp    $0xa,%al
  402b22:	74 14                	je     402b38 <check+0x2c>
  402b24:	83 c1 08             	add    $0x8,%ecx
  402b27:	83 f9 1f             	cmp    $0x1f,%ecx
  402b2a:	7e f0                	jle    402b1c <check+0x10>
  402b2c:	b8 01 00 00 00       	mov    $0x1,%eax
  402b31:	c3                   	retq   
  402b32:	b8 00 00 00 00       	mov    $0x0,%eax
  402b37:	c3                   	retq   
  402b38:	b8 00 00 00 00       	mov    $0x0,%eax
  402b3d:	c3                   	retq   

0000000000402b3e <gencookie>:
  402b3e:	53                   	push   %rbx
  402b3f:	83 c7 01             	add    $0x1,%edi
  402b42:	e8 09 e0 ff ff       	callq  400b50 <srandom@plt>
  402b47:	e8 34 e1 ff ff       	callq  400c80 <random@plt>
  402b4c:	89 c3                	mov    %eax,%ebx
  402b4e:	89 c7                	mov    %eax,%edi
  402b50:	e8 b7 ff ff ff       	callq  402b0c <check>
  402b55:	85 c0                	test   %eax,%eax
  402b57:	74 ee                	je     402b47 <gencookie+0x9>
  402b59:	89 d8                	mov    %ebx,%eax
  402b5b:	5b                   	pop    %rbx
  402b5c:	c3                   	retq   
  402b5d:	0f 1f 00             	nopl   (%rax)

0000000000402b60 <__libc_csu_init>:
  402b60:	41 57                	push   %r15
  402b62:	41 89 ff             	mov    %edi,%r15d
  402b65:	41 56                	push   %r14
  402b67:	49 89 f6             	mov    %rsi,%r14
  402b6a:	41 55                	push   %r13
  402b6c:	49 89 d5             	mov    %rdx,%r13
  402b6f:	41 54                	push   %r12
  402b71:	4c 8d 25 a8 14 20 00 	lea    0x2014a8(%rip),%r12        # 604020 <__frame_dummy_init_array_entry>
  402b78:	55                   	push   %rbp
  402b79:	48 8d 2d a8 14 20 00 	lea    0x2014a8(%rip),%rbp        # 604028 <__init_array_end>
  402b80:	53                   	push   %rbx
  402b81:	4c 29 e5             	sub    %r12,%rbp
  402b84:	31 db                	xor    %ebx,%ebx
  402b86:	48 c1 fd 03          	sar    $0x3,%rbp
  402b8a:	48 83 ec 08          	sub    $0x8,%rsp
  402b8e:	e8 7d df ff ff       	callq  400b10 <_init>
  402b93:	48 85 ed             	test   %rbp,%rbp
  402b96:	74 1e                	je     402bb6 <__libc_csu_init+0x56>
  402b98:	0f 1f 84 00 00 00 00 	nopl   0x0(%rax,%rax,1)
  402b9f:	00 
  402ba0:	4c 89 ea             	mov    %r13,%rdx
  402ba3:	4c 89 f6             	mov    %r14,%rsi
  402ba6:	44 89 ff             	mov    %r15d,%edi
  402ba9:	41 ff 14 dc          	callq  *(%r12,%rbx,8)
  402bad:	48 83 c3 01          	add    $0x1,%rbx
  402bb1:	48 39 eb             	cmp    %rbp,%rbx
  402bb4:	75 ea                	jne    402ba0 <__libc_csu_init+0x40>
  402bb6:	48 83 c4 08          	add    $0x8,%rsp
  402bba:	5b                   	pop    %rbx
  402bbb:	5d                   	pop    %rbp
  402bbc:	41 5c                	pop    %r12
  402bbe:	41 5d                	pop    %r13
  402bc0:	41 5e                	pop    %r14
  402bc2:	41 5f                	pop    %r15
  402bc4:	c3                   	retq   
  402bc5:	66 66 2e 0f 1f 84 00 	data16 nopw %cs:0x0(%rax,%rax,1)
  402bcc:	00 00 00 00 

0000000000402bd0 <__libc_csu_fini>:
  402bd0:	f3 c3                	repz retq 

Disassembly of section .fini:

0000000000402bd4 <_fini>:
  402bd4:	48 83 ec 08          	sub    $0x8,%rsp
  402bd8:	48 83 c4 08          	add    $0x8,%rsp
  402bdc:	c3                   	retq   
